

Microchip Technology PIC18 LITE Macro Assembler V1.38 build -256452561 
                                                                                               Thu Oct 26 18:59:54 2017

Microchip Technology Omniscient Code Generator v1.38 (Free mode) build 201607010351
     1                           	processor	18F46K40
     2                           	fnconf	rparam,??,?,0
     3                           	opt	pw 120
     4                           	opt	lm
     5                           	psect	smallconst,global,reloc=2,class=SMALLCONST,delta=1
     6                           	psect	nvCOMRAM,global,class=COMRAM,space=1,delta=1
     7                           	psect	cinit,global,reloc=2,class=CODE,delta=1
     8                           	psect	bssCOMRAM,global,class=COMRAM,space=1,delta=1
     9                           	psect	cstackCOMRAM,global,class=COMRAM,space=1,delta=1
    10                           	psect	text0,global,reloc=2,class=CODE,delta=1
    11                           	psect	text1,global,reloc=2,class=CODE,delta=1
    12                           	psect	text2,global,reloc=2,class=CODE,delta=1
    13                           	psect	text3,global,reloc=2,class=CODE,delta=1
    14                           	psect	text4,global,reloc=2,class=CODE,delta=1
    15                           	psect	text5,global,reloc=2,class=CODE,delta=1
    16                           	psect	text6,global,reloc=2,class=CODE,delta=1
    17                           	psect	text7,global,reloc=2,class=CODE,delta=1
    18                           	psect	text8,global,reloc=2,class=CODE,delta=1
    19                           	psect	text9,global,reloc=2,class=CODE,delta=1
    20                           	psect	text10,global,reloc=2,class=CODE,delta=1
    21                           	psect	text11,global,reloc=2,class=CODE,delta=1
    22                           	psect	text12,global,reloc=2,class=CODE,delta=1
    23                           	psect	text13,global,reloc=2,class=CODE,delta=1
    24                           	psect	text14,global,reloc=2,class=CODE,delta=1
    25                           	psect	text15,global,reloc=2,class=CODE,delta=1
    26                           	psect	text16,global,reloc=2,class=CODE,delta=1
    27                           	psect	text17,global,reloc=2,class=CODE,delta=1
    28                           	psect	text18,global,reloc=2,class=CODE,delta=1
    29                           	psect	intcode,global,reloc=2,class=CODE,delta=1
    30                           	psect	text20,global,reloc=2,class=CODE,delta=1
    31                           	psect	text21,global,reloc=2,class=CODE,delta=1
    32                           	psect	text22,global,reloc=2,class=CODE,delta=1
    33                           	psect	intsave_regs,global,class=BIGRAM,space=1,delta=1
    34                           	psect	text23,global,reloc=2,class=CODE,delta=1
    35                           	psect	rparam,global,class=COMRAM,space=1,delta=1
    36                           	psect	temp,global,ovrld,common,class=COMRAM,space=1,delta=1
    37  0000                     
    38                           	psect	smallconst
    39  000F00                     __psmallconst:
    40                           	opt stack 0
    41  000F00  00                 	db	0
    42  000F01                     _tasks_list:
    43                           	opt stack 0
    44  000F01  A4                 	db	low _periodic_task_tk
    45  000F02  11                 	db	high _periodic_task_tk
    46  000F03  A2                 	db	low _periodic_task_2tk
    47  000F04  11                 	db	high _periodic_task_2tk
    48  000F05  A0                 	db	low _periodic_task_4tk
    49  000F06  11                 	db	high _periodic_task_4tk
    50  000F07  9E                 	db	low _periodic_task_8tk
    51  000F08  11                 	db	high _periodic_task_8tk
    52  000F09  9C                 	db	low _TASK_DUMMY
    53  000F0A  11                 	db	high _TASK_DUMMY
    54  000F0B  90                 	db	low _periodic_task_32tk
    55  000F0C  11                 	db	high _periodic_task_32tk
    56  000F0D  9C                 	db	low _TASK_DUMMY
    57  000F0E  11                 	db	high _TASK_DUMMY
    58  000F0F  9C                 	db	low _TASK_DUMMY
    59  000F10  11                 	db	high _TASK_DUMMY
    60  000F11  9C                 	db	low _TASK_DUMMY
    61  000F12  11                 	db	high _TASK_DUMMY
    62  000F13  9C                 	db	low _TASK_DUMMY
    63  000F14  11                 	db	high _TASK_DUMMY
    64  000F15  9A                 	db	low _periodic_task_1024tk
    65  000F16  11                 	db	high _periodic_task_1024tk
    66  000F17  9C                 	db	low _TASK_DUMMY
    67  000F18  11                 	db	high _TASK_DUMMY
    68  000F19  9C                 	db	low _TASK_DUMMY
    69  000F1A  11                 	db	high _TASK_DUMMY
    70  000F1B  9C                 	db	low _TASK_DUMMY
    71  000F1C  11                 	db	high _TASK_DUMMY
    72  000F1D  9C                 	db	low _TASK_DUMMY
    73  000F1E  11                 	db	high _TASK_DUMMY
    74  000F1F  9C                 	db	low _TASK_DUMMY
    75  000F20  11                 	db	high _TASK_DUMMY
    76  000F21                     __end_of_tasks_list:
    77                           	opt stack 0
    78  000F21  00                 	db	0	; dummy byte at the end
    79  0000                     
    80                           	psect	nvCOMRAM
    81  000019                     __pnvCOMRAM:
    82                           	opt stack 0
    83  000019                     _TMR1_InterruptHandler:
    84                           	opt stack 0
    85  000019                     	ds	2
    86  00001B                     _timer1ReloadVal:
    87                           	opt stack 0
    88  00001B                     	ds	2
    89  0000                     _IPR4bits	set	3774
    90  0000                     _OSCCON1	set	3800
    91  0000                     _OSCCON3	set	3802
    92  0000                     _OSCEN	set	3804
    93  0000                     _OSCFRQ	set	3806
    94  0000                     _OSCTUNE	set	3805
    95  0000                     _PIE4bits	set	3782
    96  0000                     _PIR4bits	set	3790
    97  0000                     _PIR7bits	set	3793
    98  0000                     _TMR1IF	set	30320
    99  0000                     _ANSELA	set	3857
   100  0000                     _ANSELB	set	3865
   101  0000                     _ANSELC	set	3873
   102  0000                     _ANSELD	set	3878
   103  0000                     _ANSELE	set	3886
   104  0000                     _ODCONA	set	3855
   105  0000                     _ODCONB	set	3863
   106  0000                     _ODCONC	set	3871
   107  0000                     _ODCOND	set	3876
   108  0000                     _ODCONE	set	3884
   109  0000                     _WPUA	set	3856
   110  0000                     _WPUB	set	3864
   111  0000                     _WPUC	set	3872
   112  0000                     _WPUD	set	3877
   113  0000                     _WPUE	set	3885
   114  0000                     _INTCONbits	set	4082
   115  0000                     _LATA	set	3971
   116  0000                     _LATB	set	3972
   117  0000                     _LATBbits	set	3972
   118  0000                     _LATC	set	3973
   119  0000                     _LATD	set	3974
   120  0000                     _LATE	set	3975
   121  0000                     _NVMADRH	set	3967
   122  0000                     _NVMADRL	set	3966
   123  0000                     _NVMCON1bits	set	3969
   124  0000                     _NVMCON2	set	3970
   125  0000                     _NVMDAT	set	3968
   126  0000                     _T1CLK	set	4050
   127  0000                     _T1CON	set	4047
   128  0000                     _T1CONbits	set	4047
   129  0000                     _T1GATE	set	4049
   130  0000                     _T1GCON	set	4048
   131  0000                     _T1GCONbits	set	4048
   132  0000                     _TABLAT	set	4085
   133  0000                     _TBLPTRH	set	4087
   134  0000                     _TBLPTRL	set	4086
   135  0000                     _TBLPTRU	set	4088
   136  0000                     _TMR1H	set	4046
   137  0000                     _TMR1L	set	4045
   138  0000                     _TRISA	set	3976
   139  0000                     _TRISB	set	3977
   140  0000                     _TRISC	set	3978
   141  0000                     _TRISD	set	3979
   142  0000                     _TRISE	set	3980
   143                           
   144                           ; #config settings
   145  0000                     
   146                           	psect	cinit
   147  00112C                     __pcinit:
   148                           	opt stack 0
   149  00112C                     start_initialization:
   150                           	opt stack 0
   151  00112C                     __initialization:
   152                           	opt stack 0
   153                           
   154                           ; Clear objects allocated to COMRAM (4 bytes)
   155  00112C  6A20               	clrf	(__pbssCOMRAM+3)& (0+255),c
   156  00112E  6A1F               	clrf	(__pbssCOMRAM+2)& (0+255),c
   157  001130  6A1E               	clrf	(__pbssCOMRAM+1)& (0+255),c
   158  001132  6A1D               	clrf	__pbssCOMRAM& (0+255),c
   159  001134                     end_of_initialization:
   160                           	opt stack 0
   161  001134                     __end_of__initialization:
   162                           	opt stack 0
   163  001134  9021               	bcf	int$flags,0,c	;clear compiler interrupt flag (level 1)
   164  001136  9221               	bcf	int$flags,1,c	;clear compiler interrupt flag (level 2)
   165  001138  0100               	movlb	0
   166  00113A  EF9F  F008         	goto	_main	;jump to C main() function
   167                           
   168                           	psect	bssCOMRAM
   169  00001D                     __pbssCOMRAM:
   170                           	opt stack 0
   171  00001D                     _scheduler_counter:
   172                           	opt stack 0
   173  00001D                     	ds	2
   174  00001F                     _Execute_task:
   175                           	opt stack 0
   176  00001F                     	ds	1
   177  000020                     _sch_alarm:
   178                           	opt stack 0
   179  000020                     	ds	1
   180                           
   181                           	psect	cstackCOMRAM
   182  000001                     __pcstackCOMRAM:
   183                           	opt stack 0
   184  000001                     ??_INTERRUPT_InterruptManagerHigh:
   185  000001                     
   186                           ; 1 bytes @ 0x0
   187  000001                     	ds	14
   188  00000F                     ??_app_LED_Task:
   189  00000F                     TMR1_SetInterruptHandler@InterruptHandler:
   190                           	opt stack 0
   191  00000F                     sched_util_task_finder@sch_counter:
   192                           	opt stack 0
   193                           
   194                           ; 2 bytes @ 0xE
   195  00000F                     	ds	1
   196  000010                     
   197                           ; 1 bytes @ 0xF
   198  000010                     	ds	1
   199  000011                     ??_TMR1_Initialize:
   200  000011                     ??_sched_util_task_finder:
   201                           
   202                           ; 1 bytes @ 0x10
   203  000011                     	ds	2
   204  000013                     
   205                           ; 1 bytes @ 0x12
   206  000013                     	ds	1
   207  000014                     sched_util_task_finder@lub_ExitFlag:
   208                           	opt stack 0
   209                           
   210                           ; 1 bytes @ 0x13
   211  000014                     	ds	1
   212  000015                     sched_util_task_finder@lub_TaskIndex:
   213                           	opt stack 0
   214                           
   215                           ; 1 bytes @ 0x14
   216  000015                     	ds	1
   217  000016                     ??_scheduler_loop:
   218                           
   219                           ; 1 bytes @ 0x15
   220  000016                     	ds	3
   221  000019                     
   222                           ; 1 bytes @ 0x18
   223 ;;
   224 ;;Main: autosize = 0, tempsize = 0, incstack = 0, save=0
   225 ;;
   226 ;; *************** function _main *****************
   227 ;; Defined at:
   228 ;;		line 53 in file "main.c"
   229 ;; Parameters:    Size  Location     Type
   230 ;;		None
   231 ;; Auto vars:     Size  Location     Type
   232 ;;		None
   233 ;; Return value:  Size  Location     Type
   234 ;;                  1    wreg      void 
   235 ;; Registers used:
   236 ;;		wreg, status,2, status,0, pclat, tosl, tblptrl, tblptrh, tblptru, prodl, prodh, cstack
   237 ;; Tracked objects:
   238 ;;		On entry : 0/0
   239 ;;		On exit  : 0/0
   240 ;;		Unchanged: 0/0
   241 ;; Data sizes:     COMRAM   BANK0   BANK1   BANK2   BANK3   BANK4   BANK5   BANK6   BANK7   BANK8   BANK9  BANK10  BANK1
      +1  BANK12  BANK13  BANK14
   242 ;;      Params:         0       0       0       0       0       0       0       0       0       0       0       0       
      +0       0       0       0
   243 ;;      Locals:         0       0       0       0       0       0       0       0       0       0       0       0       
      +0       0       0       0
   244 ;;      Temps:          0       0       0       0       0       0       0       0       0       0       0       0       
      +0       0       0       0
   245 ;;      Totals:         0       0       0       0       0       0       0       0       0       0       0       0       
      +0       0       0       0
   246 ;;Total ram usage:        0 bytes
   247 ;; Hardware stack levels required when called:    7
   248 ;; This function calls:
   249 ;;		_InitApp
   250 ;;		_SYSTEM_Initialize
   251 ;;		_scheduler_loop
   252 ;; This function is called by:
   253 ;;		Startup code after reset
   254 ;; This function uses a non-reentrant model
   255 ;;
   256                           
   257                           	psect	text0
   258  00113E                     __ptext0:
   259                           	opt stack 0
   260  00113E                     _main:
   261                           	opt stack 24
   262                           
   263                           ;main.c: 56: SYSTEM_Initialize();
   264                           
   265                           ; BSR set to: 14
   266                           ;incstack = 0
   267  00113E  ECA8  F008         	call	_SYSTEM_Initialize	;wreg free
   268  001142                     l1294:
   269                           
   270                           ;main.c: 86: {
   271                           ;main.c: 87: InitApp();
   272  001142  ECD3  F008         	call	_InitApp	;wreg free
   273                           
   274                           ;main.c: 89: (INTCONbits.GIEH = 1);
   275  001146  8EF2               	bsf	intcon,7,c	;volatile
   276                           
   277                           ;main.c: 90: (INTCONbits.GIEL = 1);
   278  001148  8CF2               	bsf	intcon,6,c	;volatile
   279                           
   280                           ;main.c: 92: scheduler_loop();
   281  00114A  ECCF  F007         	call	_scheduler_loop	;wreg free
   282  00114E  D7F9               	goto	l1294
   283  001150                     __end_of_main:
   284                           	opt stack 0
   285                           intcon	equ	0xFF2
   286                           
   287 ;; *************** function _scheduler_loop *****************
   288 ;; Defined at:
   289 ;;		line 45 in file "OS_SEBELL/OS_SEBELL_schedu.c"
   290 ;; Parameters:    Size  Location     Type
   291 ;;		None
   292 ;; Auto vars:     Size  Location     Type
   293 ;;		None
   294 ;; Return value:  Size  Location     Type
   295 ;;                  1    wreg      void 
   296 ;; Registers used:
   297 ;;		wreg, status,2, status,0, pclat, tosl, tblptrl, tblptrh, tblptru, prodl, prodh, cstack
   298 ;; Tracked objects:
   299 ;;		On entry : 0/0
   300 ;;		On exit  : 0/0
   301 ;;		Unchanged: 0/0
   302 ;; Data sizes:     COMRAM   BANK0   BANK1   BANK2   BANK3   BANK4   BANK5   BANK6   BANK7   BANK8   BANK9  BANK10  BANK1
      +1  BANK12  BANK13  BANK14
   303 ;;      Params:         0       0       0       0       0       0       0       0       0       0       0       0       
      +0       0       0       0
   304 ;;      Locals:         0       0       0       0       0       0       0       0       0       0       0       0       
      +0       0       0       0
   305 ;;      Temps:          3       0       0       0       0       0       0       0       0       0       0       0       
      +0       0       0       0
   306 ;;      Totals:         3       0       0       0       0       0       0       0       0       0       0       0       
      +0       0       0       0
   307 ;;Total ram usage:        3 bytes
   308 ;; Hardware stack levels used:    1
   309 ;; Hardware stack levels required when called:    6
   310 ;; This function calls:
   311 ;;		_TASK_DUMMY
   312 ;;		_periodic_task_1024tk
   313 ;;		_periodic_task_2tk
   314 ;;		_periodic_task_32tk
   315 ;;		_periodic_task_4tk
   316 ;;		_periodic_task_8tk
   317 ;;		_periodic_task_tk
   318 ;;		_sched_util_task_finder
   319 ;; This function is called by:
   320 ;;		_main
   321 ;; This function uses a non-reentrant model
   322 ;;
   323                           
   324                           	psect	text1
   325  000F9E                     __ptext1:
   326                           	opt stack 0
   327  000F9E                     _scheduler_loop:
   328                           	opt stack 24
   329  000F9E                     l275:
   330  000F9E                     
   331                           ;OS_SEBELL_schedu.c: 49: if( 0x01u == sch_alarm){
   332  000F9E  0420               	decf	_sch_alarm,w,c
   333  000FA0  A4D8               	btfss	status,2,c
   334  000FA2  D010               	goto	l1286
   335                           
   336                           ;OS_SEBELL_schedu.c: 51: sch_alarm = 0x00u;
   337  000FA4  0E00               	movlw	0
   338  000FA6  6E20               	movwf	_sch_alarm,c
   339                           
   340                           ;OS_SEBELL_schedu.c: 52: scheduler_counter++;
   341  000FA8  4A1D               	infsnz	_scheduler_counter,f,c
   342  000FAA  2A1E               	incf	_scheduler_counter+1,f,c
   343                           
   344                           ;OS_SEBELL_schedu.c: 53: Execute_task = 0x01u;
   345  000FAC  0E01               	movlw	1
   346  000FAE  6E1F               	movwf	_Execute_task,c
   347                           
   348                           ;OS_SEBELL_schedu.c: 57: if(0xFFFE < scheduler_counter){
   349  000FB0  281D               	incf	_scheduler_counter,w,c
   350  000FB2  E1F5               	bnz	l275
   351  000FB4  281E               	incf	_scheduler_counter+1,w,c
   352  000FB6  A4D8               	btfss	status,2,c
   353  000FB8  D7F2               	goto	l1274
   354                           
   355                           ;OS_SEBELL_schedu.c: 58: scheduler_counter = 0x0001;
   356  000FBA  0E00               	movlw	0
   357  000FBC  6E1E               	movwf	_scheduler_counter+1,c
   358  000FBE  0E01               	movlw	1
   359  000FC0  6E1D               	movwf	_scheduler_counter,c
   360                           
   361                           ;OS_SEBELL_schedu.c: 62: }
   362                           ;OS_SEBELL_schedu.c: 63: }
   363                           
   364                           ;OS_SEBELL_schedu.c: 60: else{
   365                           
   366                           ;OS_SEBELL_schedu.c: 59: }
   367  000FC2  D7ED               	goto	l1274
   368  000FC4                     l1286:
   369                           
   370                           ;OS_SEBELL_schedu.c: 64: else{
   371                           ;OS_SEBELL_schedu.c: 65: if(0x01u == Execute_task ){
   372  000FC4  041F               	decf	_Execute_task,w,c
   373  000FC6  A4D8               	btfss	status,2,c
   374  000FC8  D7EA               	goto	l1274
   375                           
   376                           ;OS_SEBELL_schedu.c: 67: Execute_task = 0x00u;
   377  000FCA  0E00               	movlw	0
   378  000FCC  6E1F               	movwf	_Execute_task,c
   379                           
   380                           ;OS_SEBELL_schedu.c: 68: tasks_list[sched_util_task_finder(scheduler_counter)]();
   381  000FCE  C01D  F00F         	movff	_scheduler_counter,sched_util_task_finder@sch_counter
   382  000FD2  C01E  F010         	movff	_scheduler_counter+1,sched_util_task_finder@sch_counter+1
   383  000FD6  EC56  F008         	call	_sched_util_task_finder	;wreg free
   384  000FDA  6E16               	movwf	??_scheduler_loop& (0+255),c
   385  000FDC  5016               	movf	??_scheduler_loop,w,c
   386  000FDE  0D02               	mullw	2
   387  000FE0  0E01               	movlw	low _tasks_list
   388  000FE2  24F3               	addwf	prodl,w,c
   389  000FE4  6EF6               	movwf	tblptrl,c
   390  000FE6  0E0F               	movlw	high _tasks_list
   391  000FE8  20F4               	addwfc	prodh,w,c
   392  000FEA  6EF7               	movwf	tblptrh,c
   393  000FEC                     	if	1	;There are 3 active tblptr bytes
   394  000FEC  6AF8               	clrf	tblptru,c
   395  000FEE  0E00               	movlw	low (__mediumconst shr (0+16))
   396  000FF0  22F8               	addwfc	tblptru,f,c
   397  000FF2                     	endif
   398  000FF2  0009               	tblrd		*+
   399  000FF4  CFF5 F017          	movff	tablat,??_scheduler_loop+1
   400  000FF8  0009               	tblrd		*+
   401  000FFA  CFF5 F018          	movff	tablat,??_scheduler_loop+2
   402  000FFE  D801               	call	u348
   403  001000  D7CE               	goto	l1274
   404  001002                     u348:
   405  001002  0005               	push	
   406  001004  6EFA               	movwf	pclath,c
   407  001006  5017               	movf	??_scheduler_loop+1,w,c
   408  001008  6EFD               	movwf	tosl,c
   409  00100A  5018               	movf	??_scheduler_loop+2,w,c
   410  00100C  6EFE               	movwf	tosh,c
   411  00100E  6AFF               	clrf	tosu,c
   412  001010  50FA               	movf	pclath,w,c
   413  001012  0012               	return		;indir
   414  001014                     __end_of_scheduler_loop:
   415                           	opt stack 0
   416                           tosu	equ	0xFFF
   417                           tosh	equ	0xFFE
   418                           tosl	equ	0xFFD
   419                           pclath	equ	0xFFA
   420                           tblptru	equ	0xFF8
   421                           tblptrh	equ	0xFF7
   422                           tblptrl	equ	0xFF6
   423                           tablat	equ	0xFF5
   424                           prodh	equ	0xFF4
   425                           prodl	equ	0xFF3
   426                           intcon	equ	0xFF2
   427                           status	equ	0xFD8
   428                           
   429 ;; *************** function _sched_util_task_finder *****************
   430 ;; Defined at:
   431 ;;		line 12 in file "OS_SEBELL/OS_SEBELL_sched_util.c"
   432 ;; Parameters:    Size  Location     Type
   433 ;;  sch_counter     2   14[COMRAM] unsigned short 
   434 ;; Auto vars:     Size  Location     Type
   435 ;;  lub_TaskInde    1   20[COMRAM] unsigned char 
   436 ;;  lub_ExitFlag    1   19[COMRAM] unsigned char 
   437 ;; Return value:  Size  Location     Type
   438 ;;                  1    wreg      unsigned char 
   439 ;; Registers used:
   440 ;;		wreg, status,2, status,0
   441 ;; Tracked objects:
   442 ;;		On entry : 0/0
   443 ;;		On exit  : 0/0
   444 ;;		Unchanged: 0/0
   445 ;; Data sizes:     COMRAM   BANK0   BANK1   BANK2   BANK3   BANK4   BANK5   BANK6   BANK7   BANK8   BANK9  BANK10  BANK1
      +1  BANK12  BANK13  BANK14
   446 ;;      Params:         2       0       0       0       0       0       0       0       0       0       0       0       
      +0       0       0       0
   447 ;;      Locals:         2       0       0       0       0       0       0       0       0       0       0       0       
      +0       0       0       0
   448 ;;      Temps:          3       0       0       0       0       0       0       0       0       0       0       0       
      +0       0       0       0
   449 ;;      Totals:         7       0       0       0       0       0       0       0       0       0       0       0       
      +0       0       0       0
   450 ;;Total ram usage:        7 bytes
   451 ;; Hardware stack levels used:    1
   452 ;; Hardware stack levels required when called:    4
   453 ;; This function calls:
   454 ;;		Nothing
   455 ;; This function is called by:
   456 ;;		_scheduler_loop
   457 ;; This function uses a non-reentrant model
   458 ;;
   459                           
   460                           	psect	text2
   461  0010AC                     __ptext2:
   462                           	opt stack 0
   463  0010AC                     _sched_util_task_finder:
   464                           	opt stack 25
   465                           
   466                           ;OS_SEBELL_sched_util.c: 15: unsigned char lub_ExitFlag = 0x01;
   467                           
   468                           ;incstack = 0
   469  0010AC  0E01               	movlw	1
   470  0010AE  6E14               	movwf	sched_util_task_finder@lub_ExitFlag,c
   471                           
   472                           ;OS_SEBELL_sched_util.c: 17: unsigned char lub_TaskIndex = 0x00;
   473  0010B0  0E00               	movlw	0
   474  0010B2  6E15               	movwf	sched_util_task_finder@lub_TaskIndex,c
   475                           
   476                           ;OS_SEBELL_sched_util.c: 19: for(lub_TaskIndex = 0; (lub_TaskIndex < ((sizeof(T_SCH_CNT)
      +                          *8) - 1)) && (lub_ExitFlag == 0x01); lub_TaskIndex++)
   477  0010B4  0E00               	movlw	0
   478  0010B6  6E15               	movwf	sched_util_task_finder@lub_TaskIndex,c
   479  0010B8  D012               	goto	l1258
   480  0010BA                     l1252:
   481                           
   482                           ;OS_SEBELL_sched_util.c: 20: {
   483                           ;OS_SEBELL_sched_util.c: 22: if(((sch_counter >> lub_TaskIndex) & 0x01) == 0x01)
   484  0010BA  C015  F011         	movff	sched_util_task_finder@lub_TaskIndex,??_sched_util_task_finder
   485  0010BE  C00F  F012         	movff	sched_util_task_finder@sch_counter,??_sched_util_task_finder+1
   486  0010C2  C010  F013         	movff	sched_util_task_finder@sch_counter+1,??_sched_util_task_finder+2
   487  0010C6  2A11               	incf	??_sched_util_task_finder,f,c
   488  0010C8  D003               	goto	u274
   489  0010CA                     u275:
   490  0010CA  90D8               	bcf	status,0,c
   491  0010CC  3213               	rrcf	??_sched_util_task_finder+2,f,c
   492  0010CE  3212               	rrcf	??_sched_util_task_finder+1,f,c
   493  0010D0                     u274:
   494  0010D0  2E11               	decfsz	??_sched_util_task_finder,f,c
   495  0010D2  D7FB               	goto	u275
   496  0010D4  A012               	btfss	??_sched_util_task_finder+1,0,c
   497  0010D6  D002               	goto	l1256
   498                           
   499                           ;OS_SEBELL_sched_util.c: 23: {
   500                           ;OS_SEBELL_sched_util.c: 25: lub_ExitFlag = 0x00;
   501  0010D8  0E00               	movlw	0
   502  0010DA  6E14               	movwf	sched_util_task_finder@lub_ExitFlag,c
   503  0010DC                     l1256:
   504  0010DC  2A15               	incf	sched_util_task_finder@lub_TaskIndex,f,c
   505  0010DE                     l1258:
   506  0010DE  0E0F               	movlw	15
   507  0010E0  6015               	cpfslt	sched_util_task_finder@lub_TaskIndex,c
   508  0010E2  D003               	goto	l1262
   509  0010E4  0414               	decf	sched_util_task_finder@lub_ExitFlag,w,c
   510  0010E6  B4D8               	btfsc	status,2,c
   511  0010E8  D7E8               	goto	l1252
   512  0010EA                     l1262:
   513                           
   514                           ;OS_SEBELL_sched_util.c: 26: }
   515                           ;OS_SEBELL_sched_util.c: 27: }
   516                           ;OS_SEBELL_sched_util.c: 29: return(lub_TaskIndex - 1);
   517  0010EA  0415               	decf	sched_util_task_finder@lub_TaskIndex,w,c
   518  0010EC  0012               	return	
   519  0010EE                     __end_of_sched_util_task_finder:
   520                           	opt stack 0
   521                           tosu	equ	0xFFF
   522                           tosh	equ	0xFFE
   523                           tosl	equ	0xFFD
   524                           pclath	equ	0xFFA
   525                           tblptru	equ	0xFF8
   526                           tblptrh	equ	0xFF7
   527                           tblptrl	equ	0xFF6
   528                           tablat	equ	0xFF5
   529                           prodh	equ	0xFF4
   530                           prodl	equ	0xFF3
   531                           intcon	equ	0xFF2
   532                           status	equ	0xFD8
   533                           
   534 ;; *************** function _periodic_task_1024tk *****************
   535 ;; Defined at:
   536 ;;		line 31 in file "periodic_task_exec.c"
   537 ;; Parameters:    Size  Location     Type
   538 ;;		None
   539 ;; Auto vars:     Size  Location     Type
   540 ;;		None
   541 ;; Return value:  Size  Location     Type
   542 ;;                  1    wreg      void 
   543 ;; Registers used:
   544 ;;		None
   545 ;; Tracked objects:
   546 ;;		On entry : 0/0
   547 ;;		On exit  : 0/0
   548 ;;		Unchanged: 0/0
   549 ;; Data sizes:     COMRAM   BANK0   BANK1   BANK2   BANK3   BANK4   BANK5   BANK6   BANK7   BANK8   BANK9  BANK10  BANK1
      +1  BANK12  BANK13  BANK14
   550 ;;      Params:         0       0       0       0       0       0       0       0       0       0       0       0       
      +0       0       0       0
   551 ;;      Locals:         0       0       0       0       0       0       0       0       0       0       0       0       
      +0       0       0       0
   552 ;;      Temps:          0       0       0       0       0       0       0       0       0       0       0       0       
      +0       0       0       0
   553 ;;      Totals:         0       0       0       0       0       0       0       0       0       0       0       0       
      +0       0       0       0
   554 ;;Total ram usage:        0 bytes
   555 ;; Hardware stack levels used:    1
   556 ;; Hardware stack levels required when called:    4
   557 ;; This function calls:
   558 ;;		Nothing
   559 ;; This function is called by:
   560 ;;		_scheduler_loop
   561 ;; This function uses a non-reentrant model
   562 ;;
   563                           
   564                           	psect	text3
   565  00119A                     __ptext3:
   566                           	opt stack 0
   567  00119A                     _periodic_task_1024tk:
   568                           	opt stack 25
   569                           
   570                           ;periodic_task_exec.c: 34: return;
   571                           
   572                           ;incstack = 0
   573  00119A  0012               	return		;funcret
   574  00119C                     __end_of_periodic_task_1024tk:
   575                           	opt stack 0
   576                           tosu	equ	0xFFF
   577                           tosh	equ	0xFFE
   578                           tosl	equ	0xFFD
   579                           pclath	equ	0xFFA
   580                           tblptru	equ	0xFF8
   581                           tblptrh	equ	0xFF7
   582                           tblptrl	equ	0xFF6
   583                           tablat	equ	0xFF5
   584                           prodh	equ	0xFF4
   585                           prodl	equ	0xFF3
   586                           intcon	equ	0xFF2
   587                           status	equ	0xFD8
   588                           
   589 ;; *************** function _periodic_task_32tk *****************
   590 ;; Defined at:
   591 ;;		line 25 in file "periodic_task_exec.c"
   592 ;; Parameters:    Size  Location     Type
   593 ;;		None
   594 ;; Auto vars:     Size  Location     Type
   595 ;;		None
   596 ;; Return value:  Size  Location     Type
   597 ;;                  1    wreg      void 
   598 ;; Registers used:
   599 ;;		wreg, status,2, status,0, cstack
   600 ;; Tracked objects:
   601 ;;		On entry : 0/0
   602 ;;		On exit  : 0/0
   603 ;;		Unchanged: 0/0
   604 ;; Data sizes:     COMRAM   BANK0   BANK1   BANK2   BANK3   BANK4   BANK5   BANK6   BANK7   BANK8   BANK9  BANK10  BANK1
      +1  BANK12  BANK13  BANK14
   605 ;;      Params:         0       0       0       0       0       0       0       0       0       0       0       0       
      +0       0       0       0
   606 ;;      Locals:         0       0       0       0       0       0       0       0       0       0       0       0       
      +0       0       0       0
   607 ;;      Temps:          0       0       0       0       0       0       0       0       0       0       0       0       
      +0       0       0       0
   608 ;;      Totals:         0       0       0       0       0       0       0       0       0       0       0       0       
      +0       0       0       0
   609 ;;Total ram usage:        0 bytes
   610 ;; Hardware stack levels used:    1
   611 ;; Hardware stack levels required when called:    5
   612 ;; This function calls:
   613 ;;		_app_LED_Task
   614 ;; This function is called by:
   615 ;;		_scheduler_loop
   616 ;; This function uses a non-reentrant model
   617 ;;
   618                           
   619                           	psect	text4
   620  001190                     __ptext4:
   621                           	opt stack 0
   622  001190                     _periodic_task_32tk:
   623                           	opt stack 24
   624                           
   625                           ;periodic_task_exec.c: 27: app_LED_Task();
   626                           
   627                           ;incstack = 0
   628  001190  EC0A  F008         	call	_app_LED_Task	;wreg free
   629  001194  0012               	return	
   630  001196                     __end_of_periodic_task_32tk:
   631                           	opt stack 0
   632                           tosu	equ	0xFFF
   633                           tosh	equ	0xFFE
   634                           tosl	equ	0xFFD
   635                           pclath	equ	0xFFA
   636                           tblptru	equ	0xFF8
   637                           tblptrh	equ	0xFF7
   638                           tblptrl	equ	0xFF6
   639                           tablat	equ	0xFF5
   640                           prodh	equ	0xFF4
   641                           prodl	equ	0xFF3
   642                           intcon	equ	0xFF2
   643                           status	equ	0xFD8
   644                           
   645 ;; *************** function _TASK_DUMMY *****************
   646 ;; Defined at:
   647 ;;		line 37 in file "periodic_task_exec.c"
   648 ;; Parameters:    Size  Location     Type
   649 ;;		None
   650 ;; Auto vars:     Size  Location     Type
   651 ;;		None
   652 ;; Return value:  Size  Location     Type
   653 ;;                  1    wreg      void 
   654 ;; Registers used:
   655 ;;		None
   656 ;; Tracked objects:
   657 ;;		On entry : 0/0
   658 ;;		On exit  : 0/0
   659 ;;		Unchanged: 0/0
   660 ;; Data sizes:     COMRAM   BANK0   BANK1   BANK2   BANK3   BANK4   BANK5   BANK6   BANK7   BANK8   BANK9  BANK10  BANK1
      +1  BANK12  BANK13  BANK14
   661 ;;      Params:         0       0       0       0       0       0       0       0       0       0       0       0       
      +0       0       0       0
   662 ;;      Locals:         0       0       0       0       0       0       0       0       0       0       0       0       
      +0       0       0       0
   663 ;;      Temps:          0       0       0       0       0       0       0       0       0       0       0       0       
      +0       0       0       0
   664 ;;      Totals:         0       0       0       0       0       0       0       0       0       0       0       0       
      +0       0       0       0
   665 ;;Total ram usage:        0 bytes
   666 ;; Hardware stack levels used:    1
   667 ;; Hardware stack levels required when called:    4
   668 ;; This function calls:
   669 ;;		Nothing
   670 ;; This function is called by:
   671 ;;		_scheduler_loop
   672 ;; This function uses a non-reentrant model
   673 ;;
   674                           
   675                           	psect	text5
   676  00119C                     __ptext5:
   677                           	opt stack 0
   678  00119C                     _TASK_DUMMY:
   679                           	opt stack 25
   680                           
   681                           ;periodic_task_exec.c: 39: return;
   682                           
   683                           ;incstack = 0
   684  00119C  0012               	return		;funcret
   685  00119E                     __end_of_TASK_DUMMY:
   686                           	opt stack 0
   687                           tosu	equ	0xFFF
   688                           tosh	equ	0xFFE
   689                           tosl	equ	0xFFD
   690                           pclath	equ	0xFFA
   691                           tblptru	equ	0xFF8
   692                           tblptrh	equ	0xFF7
   693                           tblptrl	equ	0xFF6
   694                           tablat	equ	0xFF5
   695                           prodh	equ	0xFF4
   696                           prodl	equ	0xFF3
   697                           intcon	equ	0xFF2
   698                           status	equ	0xFD8
   699                           
   700 ;; *************** function _periodic_task_8tk *****************
   701 ;; Defined at:
   702 ;;		line 20 in file "periodic_task_exec.c"
   703 ;; Parameters:    Size  Location     Type
   704 ;;		None
   705 ;; Auto vars:     Size  Location     Type
   706 ;;		None
   707 ;; Return value:  Size  Location     Type
   708 ;;                  1    wreg      void 
   709 ;; Registers used:
   710 ;;		None
   711 ;; Tracked objects:
   712 ;;		On entry : 0/0
   713 ;;		On exit  : 0/0
   714 ;;		Unchanged: 0/0
   715 ;; Data sizes:     COMRAM   BANK0   BANK1   BANK2   BANK3   BANK4   BANK5   BANK6   BANK7   BANK8   BANK9  BANK10  BANK1
      +1  BANK12  BANK13  BANK14
   716 ;;      Params:         0       0       0       0       0       0       0       0       0       0       0       0       
      +0       0       0       0
   717 ;;      Locals:         0       0       0       0       0       0       0       0       0       0       0       0       
      +0       0       0       0
   718 ;;      Temps:          0       0       0       0       0       0       0       0       0       0       0       0       
      +0       0       0       0
   719 ;;      Totals:         0       0       0       0       0       0       0       0       0       0       0       0       
      +0       0       0       0
   720 ;;Total ram usage:        0 bytes
   721 ;; Hardware stack levels used:    1
   722 ;; Hardware stack levels required when called:    4
   723 ;; This function calls:
   724 ;;		Nothing
   725 ;; This function is called by:
   726 ;;		_scheduler_loop
   727 ;; This function uses a non-reentrant model
   728 ;;
   729                           
   730                           	psect	text6
   731  00119E                     __ptext6:
   732                           	opt stack 0
   733  00119E                     _periodic_task_8tk:
   734                           	opt stack 25
   735                           
   736                           ;periodic_task_exec.c: 22: return;
   737                           
   738                           ;incstack = 0
   739  00119E  0012               	return		;funcret
   740  0011A0                     __end_of_periodic_task_8tk:
   741                           	opt stack 0
   742                           tosu	equ	0xFFF
   743                           tosh	equ	0xFFE
   744                           tosl	equ	0xFFD
   745                           pclath	equ	0xFFA
   746                           tblptru	equ	0xFF8
   747                           tblptrh	equ	0xFF7
   748                           tblptrl	equ	0xFF6
   749                           tablat	equ	0xFF5
   750                           prodh	equ	0xFF4
   751                           prodl	equ	0xFF3
   752                           intcon	equ	0xFF2
   753                           status	equ	0xFD8
   754                           
   755 ;; *************** function _periodic_task_4tk *****************
   756 ;; Defined at:
   757 ;;		line 15 in file "periodic_task_exec.c"
   758 ;; Parameters:    Size  Location     Type
   759 ;;		None
   760 ;; Auto vars:     Size  Location     Type
   761 ;;		None
   762 ;; Return value:  Size  Location     Type
   763 ;;                  1    wreg      void 
   764 ;; Registers used:
   765 ;;		None
   766 ;; Tracked objects:
   767 ;;		On entry : 0/0
   768 ;;		On exit  : 0/0
   769 ;;		Unchanged: 0/0
   770 ;; Data sizes:     COMRAM   BANK0   BANK1   BANK2   BANK3   BANK4   BANK5   BANK6   BANK7   BANK8   BANK9  BANK10  BANK1
      +1  BANK12  BANK13  BANK14
   771 ;;      Params:         0       0       0       0       0       0       0       0       0       0       0       0       
      +0       0       0       0
   772 ;;      Locals:         0       0       0       0       0       0       0       0       0       0       0       0       
      +0       0       0       0
   773 ;;      Temps:          0       0       0       0       0       0       0       0       0       0       0       0       
      +0       0       0       0
   774 ;;      Totals:         0       0       0       0       0       0       0       0       0       0       0       0       
      +0       0       0       0
   775 ;;Total ram usage:        0 bytes
   776 ;; Hardware stack levels used:    1
   777 ;; Hardware stack levels required when called:    4
   778 ;; This function calls:
   779 ;;		Nothing
   780 ;; This function is called by:
   781 ;;		_scheduler_loop
   782 ;; This function uses a non-reentrant model
   783 ;;
   784                           
   785                           	psect	text7
   786  0011A0                     __ptext7:
   787                           	opt stack 0
   788  0011A0                     _periodic_task_4tk:
   789                           	opt stack 25
   790                           
   791                           ;periodic_task_exec.c: 17: return;
   792                           
   793                           ;incstack = 0
   794  0011A0  0012               	return		;funcret
   795  0011A2                     __end_of_periodic_task_4tk:
   796                           	opt stack 0
   797                           tosu	equ	0xFFF
   798                           tosh	equ	0xFFE
   799                           tosl	equ	0xFFD
   800                           pclath	equ	0xFFA
   801                           tblptru	equ	0xFF8
   802                           tblptrh	equ	0xFF7
   803                           tblptrl	equ	0xFF6
   804                           tablat	equ	0xFF5
   805                           prodh	equ	0xFF4
   806                           prodl	equ	0xFF3
   807                           intcon	equ	0xFF2
   808                           status	equ	0xFD8
   809                           
   810 ;; *************** function _periodic_task_2tk *****************
   811 ;; Defined at:
   812 ;;		line 10 in file "periodic_task_exec.c"
   813 ;; Parameters:    Size  Location     Type
   814 ;;		None
   815 ;; Auto vars:     Size  Location     Type
   816 ;;		None
   817 ;; Return value:  Size  Location     Type
   818 ;;                  1    wreg      void 
   819 ;; Registers used:
   820 ;;		None
   821 ;; Tracked objects:
   822 ;;		On entry : 0/0
   823 ;;		On exit  : 0/0
   824 ;;		Unchanged: 0/0
   825 ;; Data sizes:     COMRAM   BANK0   BANK1   BANK2   BANK3   BANK4   BANK5   BANK6   BANK7   BANK8   BANK9  BANK10  BANK1
      +1  BANK12  BANK13  BANK14
   826 ;;      Params:         0       0       0       0       0       0       0       0       0       0       0       0       
      +0       0       0       0
   827 ;;      Locals:         0       0       0       0       0       0       0       0       0       0       0       0       
      +0       0       0       0
   828 ;;      Temps:          0       0       0       0       0       0       0       0       0       0       0       0       
      +0       0       0       0
   829 ;;      Totals:         0       0       0       0       0       0       0       0       0       0       0       0       
      +0       0       0       0
   830 ;;Total ram usage:        0 bytes
   831 ;; Hardware stack levels used:    1
   832 ;; Hardware stack levels required when called:    4
   833 ;; This function calls:
   834 ;;		Nothing
   835 ;; This function is called by:
   836 ;;		_scheduler_loop
   837 ;; This function uses a non-reentrant model
   838 ;;
   839                           
   840                           	psect	text8
   841  0011A2                     __ptext8:
   842                           	opt stack 0
   843  0011A2                     _periodic_task_2tk:
   844                           	opt stack 25
   845                           
   846                           ;periodic_task_exec.c: 12: return;
   847                           
   848                           ;incstack = 0
   849  0011A2  0012               	return		;funcret
   850  0011A4                     __end_of_periodic_task_2tk:
   851                           	opt stack 0
   852                           tosu	equ	0xFFF
   853                           tosh	equ	0xFFE
   854                           tosl	equ	0xFFD
   855                           pclath	equ	0xFFA
   856                           tblptru	equ	0xFF8
   857                           tblptrh	equ	0xFF7
   858                           tblptrl	equ	0xFF6
   859                           tablat	equ	0xFF5
   860                           prodh	equ	0xFF4
   861                           prodl	equ	0xFF3
   862                           intcon	equ	0xFF2
   863                           status	equ	0xFD8
   864                           
   865 ;; *************** function _periodic_task_tk *****************
   866 ;; Defined at:
   867 ;;		line 5 in file "periodic_task_exec.c"
   868 ;; Parameters:    Size  Location     Type
   869 ;;		None
   870 ;; Auto vars:     Size  Location     Type
   871 ;;		None
   872 ;; Return value:  Size  Location     Type
   873 ;;                  1    wreg      void 
   874 ;; Registers used:
   875 ;;		None
   876 ;; Tracked objects:
   877 ;;		On entry : 0/0
   878 ;;		On exit  : 0/0
   879 ;;		Unchanged: 0/0
   880 ;; Data sizes:     COMRAM   BANK0   BANK1   BANK2   BANK3   BANK4   BANK5   BANK6   BANK7   BANK8   BANK9  BANK10  BANK1
      +1  BANK12  BANK13  BANK14
   881 ;;      Params:         0       0       0       0       0       0       0       0       0       0       0       0       
      +0       0       0       0
   882 ;;      Locals:         0       0       0       0       0       0       0       0       0       0       0       0       
      +0       0       0       0
   883 ;;      Temps:          0       0       0       0       0       0       0       0       0       0       0       0       
      +0       0       0       0
   884 ;;      Totals:         0       0       0       0       0       0       0       0       0       0       0       0       
      +0       0       0       0
   885 ;;Total ram usage:        0 bytes
   886 ;; Hardware stack levels used:    1
   887 ;; Hardware stack levels required when called:    4
   888 ;; This function calls:
   889 ;;		Nothing
   890 ;; This function is called by:
   891 ;;		_scheduler_loop
   892 ;; This function uses a non-reentrant model
   893 ;;
   894                           
   895                           	psect	text9
   896  0011A4                     __ptext9:
   897                           	opt stack 0
   898  0011A4                     _periodic_task_tk:
   899                           	opt stack 25
   900                           
   901                           ;periodic_task_exec.c: 7: return;
   902                           
   903                           ;incstack = 0
   904  0011A4  0012               	return		;funcret
   905  0011A6                     __end_of_periodic_task_tk:
   906                           	opt stack 0
   907                           tosu	equ	0xFFF
   908                           tosh	equ	0xFFE
   909                           tosl	equ	0xFFD
   910                           pclath	equ	0xFFA
   911                           tblptru	equ	0xFF8
   912                           tblptrh	equ	0xFF7
   913                           tblptrl	equ	0xFF6
   914                           tablat	equ	0xFF5
   915                           prodh	equ	0xFF4
   916                           prodl	equ	0xFF3
   917                           intcon	equ	0xFF2
   918                           status	equ	0xFD8
   919                           
   920 ;; *************** function _app_LED_Task *****************
   921 ;; Defined at:
   922 ;;		line 11 in file "app/app_LED.c"
   923 ;; Parameters:    Size  Location     Type
   924 ;;		None
   925 ;; Auto vars:     Size  Location     Type
   926 ;;		None
   927 ;; Return value:  Size  Location     Type
   928 ;;                  1    wreg      void 
   929 ;; Registers used:
   930 ;;		wreg, status,2, status,0
   931 ;; Tracked objects:
   932 ;;		On entry : 0/0
   933 ;;		On exit  : 0/0
   934 ;;		Unchanged: 0/0
   935 ;; Data sizes:     COMRAM   BANK0   BANK1   BANK2   BANK3   BANK4   BANK5   BANK6   BANK7   BANK8   BANK9  BANK10  BANK1
      +1  BANK12  BANK13  BANK14
   936 ;;      Params:         0       0       0       0       0       0       0       0       0       0       0       0       
      +0       0       0       0
   937 ;;      Locals:         0       0       0       0       0       0       0       0       0       0       0       0       
      +0       0       0       0
   938 ;;      Temps:          1       0       0       0       0       0       0       0       0       0       0       0       
      +0       0       0       0
   939 ;;      Totals:         1       0       0       0       0       0       0       0       0       0       0       0       
      +0       0       0       0
   940 ;;Total ram usage:        1 bytes
   941 ;; Hardware stack levels used:    1
   942 ;; Hardware stack levels required when called:    4
   943 ;; This function calls:
   944 ;;		Nothing
   945 ;; This function is called by:
   946 ;;		_periodic_task_32tk
   947 ;; This function uses a non-reentrant model
   948 ;;
   949                           
   950                           	psect	text10
   951  001014                     __ptext10:
   952                           	opt stack 0
   953  001014                     _app_LED_Task:
   954                           	opt stack 24
   955                           
   956                           ;incstack = 0
   957                           ;app_LED.c: 13: do { LATBbits.LATB0 = ~LATBbits.LATB0; } while(0);
   958  001014  A084               	btfss	3972,0,c	;volatile
   959  001016  D002               	goto	u10
   960  001018  0E01               	movlw	1
   961  00101A  D001               	goto	u16
   962  00101C                     u10:
   963  00101C  0E00               	movlw	0
   964  00101E                     u16:
   965  00101E  0AFF               	xorlw	255
   966  001020  6E0F               	movwf	??_app_LED_Task& (0+255),c
   967  001022  5084               	movf	3972,w,c	;volatile
   968  001024  180F               	xorwf	??_app_LED_Task,w,c
   969  001026  0BFE               	andlw	-2
   970  001028  180F               	xorwf	??_app_LED_Task,w,c
   971  00102A  6E84               	movwf	3972,c	;volatile
   972                           
   973                           ;app_LED.c: 14: do { LATBbits.LATB1 = ~LATBbits.LATB1; } while(0);
   974  00102C  A284               	btfss	3972,1,c	;volatile
   975  00102E  D002               	goto	u20
   976  001030  0E01               	movlw	1
   977  001032  D001               	goto	u26
   978  001034                     u20:
   979  001034  0E00               	movlw	0
   980  001036                     u26:
   981  001036  0AFF               	xorlw	255
   982  001038  6E0F               	movwf	??_app_LED_Task& (0+255),c
   983  00103A  460F               	rlncf	??_app_LED_Task,f,c
   984  00103C  5084               	movf	3972,w,c	;volatile
   985  00103E  180F               	xorwf	??_app_LED_Task,w,c
   986  001040  0BFD               	andlw	-3
   987  001042  180F               	xorwf	??_app_LED_Task,w,c
   988  001044  6E84               	movwf	3972,c	;volatile
   989                           
   990                           ;app_LED.c: 15: do { LATBbits.LATB2 = ~LATBbits.LATB2; } while(0);
   991  001046  A484               	btfss	3972,2,c	;volatile
   992  001048  D002               	goto	u30
   993  00104A  0E01               	movlw	1
   994  00104C  D001               	goto	u36
   995  00104E                     u30:
   996  00104E  0E00               	movlw	0
   997  001050                     u36:
   998  001050  0AFF               	xorlw	255
   999  001052  6E0F               	movwf	??_app_LED_Task& (0+255),c
  1000  001054  460F               	rlncf	??_app_LED_Task,f,c
  1001  001056  460F               	rlncf	??_app_LED_Task,f,c
  1002  001058  5084               	movf	3972,w,c	;volatile
  1003  00105A  180F               	xorwf	??_app_LED_Task,w,c
  1004  00105C  0BFB               	andlw	-5
  1005  00105E  180F               	xorwf	??_app_LED_Task,w,c
  1006  001060  6E84               	movwf	3972,c	;volatile
  1007  001062  0012               	return	
  1008  001064                     __end_of_app_LED_Task:
  1009                           	opt stack 0
  1010                           tosu	equ	0xFFF
  1011                           tosh	equ	0xFFE
  1012                           tosl	equ	0xFFD
  1013                           pclath	equ	0xFFA
  1014                           tblptru	equ	0xFF8
  1015                           tblptrh	equ	0xFF7
  1016                           tblptrl	equ	0xFF6
  1017                           tablat	equ	0xFF5
  1018                           prodh	equ	0xFF4
  1019                           prodl	equ	0xFF3
  1020                           intcon	equ	0xFF2
  1021                           status	equ	0xFD8
  1022                           
  1023 ;; *************** function _SYSTEM_Initialize *****************
  1024 ;; Defined at:
  1025 ;;		line 107 in file "mcc_generated_files/mcc.c"
  1026 ;; Parameters:    Size  Location     Type
  1027 ;;		None
  1028 ;; Auto vars:     Size  Location     Type
  1029 ;;		None
  1030 ;; Return value:  Size  Location     Type
  1031 ;;                  1    wreg      void 
  1032 ;; Registers used:
  1033 ;;		wreg, status,2, status,0, cstack
  1034 ;; Tracked objects:
  1035 ;;		On entry : 0/0
  1036 ;;		On exit  : 0/0
  1037 ;;		Unchanged: 0/0
  1038 ;; Data sizes:     COMRAM   BANK0   BANK1   BANK2   BANK3   BANK4   BANK5   BANK6   BANK7   BANK8   BANK9  BANK10  BANK1
      +1  BANK12  BANK13  BANK14
  1039 ;;      Params:         0       0       0       0       0       0       0       0       0       0       0       0       
      +0       0       0       0
  1040 ;;      Locals:         0       0       0       0       0       0       0       0       0       0       0       0       
      +0       0       0       0
  1041 ;;      Temps:          0       0       0       0       0       0       0       0       0       0       0       0       
      +0       0       0       0
  1042 ;;      Totals:         0       0       0       0       0       0       0       0       0       0       0       0       
      +0       0       0       0
  1043 ;;Total ram usage:        0 bytes
  1044 ;; Hardware stack levels used:    1
  1045 ;; Hardware stack levels required when called:    6
  1046 ;; This function calls:
  1047 ;;		_INTERRUPT_Initialize
  1048 ;;		_OSCILLATOR_Initialize
  1049 ;;		_PIN_MANAGER_Initialize
  1050 ;;		_TMR1_Initialize
  1051 ;; This function is called by:
  1052 ;;		_main
  1053 ;; This function uses a non-reentrant model
  1054 ;;
  1055                           
  1056                           	psect	text11
  1057  001150                     __ptext11:
  1058                           	opt stack 0
  1059  001150                     _SYSTEM_Initialize:
  1060                           	opt stack 24
  1061                           
  1062                           ;mcc.c: 110: INTERRUPT_Initialize();
  1063                           
  1064                           ;incstack = 0
  1065  001150  ECC4  F008         	call	_INTERRUPT_Initialize	;wreg free
  1066                           
  1067                           ;mcc.c: 111: PIN_MANAGER_Initialize();
  1068  001154  EC91  F007         	call	_PIN_MANAGER_Initialize	;wreg free
  1069                           
  1070                           ;mcc.c: 112: OSCILLATOR_Initialize();
  1071  001158  EC77  F008         	call	_OSCILLATOR_Initialize	;wreg free
  1072                           
  1073                           ;mcc.c: 113: TMR1_Initialize();
  1074  00115C  EC32  F008         	call	_TMR1_Initialize	;wreg free
  1075  001160  0012               	return		;funcret
  1076  001162                     __end_of_SYSTEM_Initialize:
  1077                           	opt stack 0
  1078                           tosu	equ	0xFFF
  1079                           tosh	equ	0xFFE
  1080                           tosl	equ	0xFFD
  1081                           pclath	equ	0xFFA
  1082                           tblptru	equ	0xFF8
  1083                           tblptrh	equ	0xFF7
  1084                           tblptrl	equ	0xFF6
  1085                           tablat	equ	0xFF5
  1086                           prodh	equ	0xFF4
  1087                           prodl	equ	0xFF3
  1088                           intcon	equ	0xFF2
  1089                           status	equ	0xFD8
  1090                           
  1091 ;; *************** function _TMR1_Initialize *****************
  1092 ;; Defined at:
  1093 ;;		line 65 in file "mcc_generated_files/tmr1.c"
  1094 ;; Parameters:    Size  Location     Type
  1095 ;;		None
  1096 ;; Auto vars:     Size  Location     Type
  1097 ;;		None
  1098 ;; Return value:  Size  Location     Type
  1099 ;;                  1    wreg      void 
  1100 ;; Registers used:
  1101 ;;		wreg, status,2, status,0, cstack
  1102 ;; Tracked objects:
  1103 ;;		On entry : 0/0
  1104 ;;		On exit  : 0/0
  1105 ;;		Unchanged: 0/0
  1106 ;; Data sizes:     COMRAM   BANK0   BANK1   BANK2   BANK3   BANK4   BANK5   BANK6   BANK7   BANK8   BANK9  BANK10  BANK1
      +1  BANK12  BANK13  BANK14
  1107 ;;      Params:         0       0       0       0       0       0       0       0       0       0       0       0       
      +0       0       0       0
  1108 ;;      Locals:         0       0       0       0       0       0       0       0       0       0       0       0       
      +0       0       0       0
  1109 ;;      Temps:          2       0       0       0       0       0       0       0       0       0       0       0       
      +0       0       0       0
  1110 ;;      Totals:         2       0       0       0       0       0       0       0       0       0       0       0       
      +0       0       0       0
  1111 ;;Total ram usage:        2 bytes
  1112 ;; Hardware stack levels used:    1
  1113 ;; Hardware stack levels required when called:    5
  1114 ;; This function calls:
  1115 ;;		_TMR1_SetInterruptHandler
  1116 ;;		_TMR1_StartTimer
  1117 ;; This function is called by:
  1118 ;;		_SYSTEM_Initialize
  1119 ;; This function uses a non-reentrant model
  1120 ;;
  1121                           
  1122                           	psect	text12
  1123  001064                     __ptext12:
  1124                           	opt stack 0
  1125  001064                     _TMR1_Initialize:
  1126                           	opt stack 24
  1127                           
  1128                           ;tmr1.c: 70: T1CON = 0x00;
  1129                           
  1130                           ;incstack = 0
  1131  001064  0E00               	movlw	0
  1132  001066  6ECF               	movwf	4047,c	;volatile
  1133                           
  1134                           ;tmr1.c: 73: T1GCON = 0x00;
  1135  001068  0E00               	movlw	0
  1136  00106A  6ED0               	movwf	4048,c	;volatile
  1137                           
  1138                           ;tmr1.c: 76: T1GATE = 0x00;
  1139  00106C  0E00               	movlw	0
  1140  00106E  6ED1               	movwf	4049,c	;volatile
  1141                           
  1142                           ;tmr1.c: 79: T1CLK = 0x01;
  1143  001070  0E01               	movlw	1
  1144  001072  6ED2               	movwf	4050,c	;volatile
  1145                           
  1146                           ;tmr1.c: 82: TMR1H = 0xE0;
  1147  001074  0EE0               	movlw	224
  1148  001076  6ECE               	movwf	4046,c	;volatile
  1149                           
  1150                           ;tmr1.c: 85: TMR1L = 0xC0;
  1151  001078  0EC0               	movlw	192
  1152  00107A  6ECD               	movwf	4045,c	;volatile
  1153                           
  1154                           ;tmr1.c: 88: timer1ReloadVal=(TMR1H << 8) | TMR1L;
  1155  00107C  50CD               	movf	4045,w,c	;volatile
  1156  00107E  CFCE F011          	movff	4046,??_TMR1_Initialize	;volatile
  1157  001082  6A12               	clrf	(??_TMR1_Initialize+1)& (0+255),c
  1158  001084  C011  F012         	movff	??_TMR1_Initialize,??_TMR1_Initialize+1
  1159  001088  6A11               	clrf	??_TMR1_Initialize,c
  1160  00108A  1011               	iorwf	??_TMR1_Initialize,w,c
  1161  00108C  6E1B               	movwf	_timer1ReloadVal,c	;volatile
  1162  00108E  5012               	movf	??_TMR1_Initialize+1,w,c
  1163  001090  6E1C               	movwf	_timer1ReloadVal+1,c	;volatile
  1164                           
  1165                           ;tmr1.c: 91: PIR4bits.TMR1IF = 0;
  1166  001092  010E               	movlb	14	; () banked
  1167  001094  91CE               	bcf	206,0,b	;volatile
  1168                           
  1169                           ; BSR set to: 14
  1170                           ;tmr1.c: 94: PIE4bits.TMR1IE = 1;
  1171  001096  010E               	movlb	14	; () banked
  1172  001098  81C6               	bsf	198,0,b	;volatile
  1173                           
  1174                           ; BSR set to: 14
  1175                           ;tmr1.c: 97: TMR1_SetInterruptHandler(TMR1_DefaultInterruptHandler);
  1176  00109A  0E7E               	movlw	low _TMR1_DefaultInterruptHandler
  1177  00109C  6E0F               	movwf	TMR1_SetInterruptHandler@InterruptHandler,c
  1178  00109E  0E11               	movlw	high _TMR1_DefaultInterruptHandler
  1179  0010A0  6E10               	movwf	TMR1_SetInterruptHandler@InterruptHandler+1,c
  1180  0010A2  ECBA  F008         	call	_TMR1_SetInterruptHandler	;wreg free
  1181                           
  1182                           ;tmr1.c: 100: TMR1_StartTimer();
  1183  0010A6  ECCB  F008         	call	_TMR1_StartTimer	;wreg free
  1184  0010AA  0012               	return		;funcret
  1185  0010AC                     __end_of_TMR1_Initialize:
  1186                           	opt stack 0
  1187                           tosu	equ	0xFFF
  1188                           tosh	equ	0xFFE
  1189                           tosl	equ	0xFFD
  1190                           pclath	equ	0xFFA
  1191                           tblptru	equ	0xFF8
  1192                           tblptrh	equ	0xFF7
  1193                           tblptrl	equ	0xFF6
  1194                           tablat	equ	0xFF5
  1195                           prodh	equ	0xFF4
  1196                           prodl	equ	0xFF3
  1197                           intcon	equ	0xFF2
  1198                           status	equ	0xFD8
  1199                           
  1200 ;; *************** function _TMR1_StartTimer *****************
  1201 ;; Defined at:
  1202 ;;		line 103 in file "mcc_generated_files/tmr1.c"
  1203 ;; Parameters:    Size  Location     Type
  1204 ;;		None
  1205 ;; Auto vars:     Size  Location     Type
  1206 ;;		None
  1207 ;; Return value:  Size  Location     Type
  1208 ;;                  1    wreg      void 
  1209 ;; Registers used:
  1210 ;;		None
  1211 ;; Tracked objects:
  1212 ;;		On entry : 0/0
  1213 ;;		On exit  : 0/0
  1214 ;;		Unchanged: 0/0
  1215 ;; Data sizes:     COMRAM   BANK0   BANK1   BANK2   BANK3   BANK4   BANK5   BANK6   BANK7   BANK8   BANK9  BANK10  BANK1
      +1  BANK12  BANK13  BANK14
  1216 ;;      Params:         0       0       0       0       0       0       0       0       0       0       0       0       
      +0       0       0       0
  1217 ;;      Locals:         0       0       0       0       0       0       0       0       0       0       0       0       
      +0       0       0       0
  1218 ;;      Temps:          0       0       0       0       0       0       0       0       0       0       0       0       
      +0       0       0       0
  1219 ;;      Totals:         0       0       0       0       0       0       0       0       0       0       0       0       
      +0       0       0       0
  1220 ;;Total ram usage:        0 bytes
  1221 ;; Hardware stack levels used:    1
  1222 ;; Hardware stack levels required when called:    4
  1223 ;; This function calls:
  1224 ;;		Nothing
  1225 ;; This function is called by:
  1226 ;;		_TMR1_Initialize
  1227 ;; This function uses a non-reentrant model
  1228 ;;
  1229                           
  1230                           	psect	text13
  1231  001196                     __ptext13:
  1232                           	opt stack 0
  1233  001196                     _TMR1_StartTimer:
  1234                           	opt stack 24
  1235                           
  1236                           ;tmr1.c: 106: T1CONbits.TMR1ON = 1;
  1237                           
  1238                           ;incstack = 0
  1239  001196  80CF               	bsf	4047,0,c	;volatile
  1240  001198  0012               	return		;funcret
  1241  00119A                     __end_of_TMR1_StartTimer:
  1242                           	opt stack 0
  1243                           tosu	equ	0xFFF
  1244                           tosh	equ	0xFFE
  1245                           tosl	equ	0xFFD
  1246                           pclath	equ	0xFFA
  1247                           tblptru	equ	0xFF8
  1248                           tblptrh	equ	0xFF7
  1249                           tblptrl	equ	0xFF6
  1250                           tablat	equ	0xFF5
  1251                           prodh	equ	0xFF4
  1252                           prodl	equ	0xFF3
  1253                           intcon	equ	0xFF2
  1254                           status	equ	0xFD8
  1255                           
  1256 ;; *************** function _TMR1_SetInterruptHandler *****************
  1257 ;; Defined at:
  1258 ;;		line 186 in file "mcc_generated_files/tmr1.c"
  1259 ;; Parameters:    Size  Location     Type
  1260 ;;  InterruptHan    2   14[COMRAM] PTR void 
  1261 ;;		 -> TMR1_DefaultInterruptHandler(1), 
  1262 ;; Auto vars:     Size  Location     Type
  1263 ;;		None
  1264 ;; Return value:  Size  Location     Type
  1265 ;;                  1    wreg      void 
  1266 ;; Registers used:
  1267 ;;		wreg, status,2, status,0
  1268 ;; Tracked objects:
  1269 ;;		On entry : 0/0
  1270 ;;		On exit  : 0/0
  1271 ;;		Unchanged: 0/0
  1272 ;; Data sizes:     COMRAM   BANK0   BANK1   BANK2   BANK3   BANK4   BANK5   BANK6   BANK7   BANK8   BANK9  BANK10  BANK1
      +1  BANK12  BANK13  BANK14
  1273 ;;      Params:         2       0       0       0       0       0       0       0       0       0       0       0       
      +0       0       0       0
  1274 ;;      Locals:         0       0       0       0       0       0       0       0       0       0       0       0       
      +0       0       0       0
  1275 ;;      Temps:          0       0       0       0       0       0       0       0       0       0       0       0       
      +0       0       0       0
  1276 ;;      Totals:         2       0       0       0       0       0       0       0       0       0       0       0       
      +0       0       0       0
  1277 ;;Total ram usage:        2 bytes
  1278 ;; Hardware stack levels used:    1
  1279 ;; Hardware stack levels required when called:    4
  1280 ;; This function calls:
  1281 ;;		Nothing
  1282 ;; This function is called by:
  1283 ;;		_TMR1_Initialize
  1284 ;; This function uses a non-reentrant model
  1285 ;;
  1286                           
  1287                           	psect	text14
  1288  001174                     __ptext14:
  1289                           	opt stack 0
  1290  001174                     _TMR1_SetInterruptHandler:
  1291                           	opt stack 24
  1292                           
  1293                           ;tmr1.c: 187: TMR1_InterruptHandler = InterruptHandler;
  1294                           
  1295                           ;incstack = 0
  1296  001174  C00F  F019         	movff	TMR1_SetInterruptHandler@InterruptHandler,_TMR1_InterruptHandler
  1297  001178  C010  F01A         	movff	TMR1_SetInterruptHandler@InterruptHandler+1,_TMR1_InterruptHandler+1
  1298  00117C  0012               	return		;funcret
  1299  00117E                     __end_of_TMR1_SetInterruptHandler:
  1300                           	opt stack 0
  1301                           tosu	equ	0xFFF
  1302                           tosh	equ	0xFFE
  1303                           tosl	equ	0xFFD
  1304                           pclath	equ	0xFFA
  1305                           tblptru	equ	0xFF8
  1306                           tblptrh	equ	0xFF7
  1307                           tblptrl	equ	0xFF6
  1308                           tablat	equ	0xFF5
  1309                           prodh	equ	0xFF4
  1310                           prodl	equ	0xFF3
  1311                           intcon	equ	0xFF2
  1312                           status	equ	0xFD8
  1313                           
  1314 ;; *************** function _PIN_MANAGER_Initialize *****************
  1315 ;; Defined at:
  1316 ;;		line 51 in file "mcc_generated_files/pin_manager.c"
  1317 ;; Parameters:    Size  Location     Type
  1318 ;;		None
  1319 ;; Auto vars:     Size  Location     Type
  1320 ;;		None
  1321 ;; Return value:  Size  Location     Type
  1322 ;;                  1    wreg      void 
  1323 ;; Registers used:
  1324 ;;		wreg, status,2
  1325 ;; Tracked objects:
  1326 ;;		On entry : 0/0
  1327 ;;		On exit  : 0/0
  1328 ;;		Unchanged: 0/0
  1329 ;; Data sizes:     COMRAM   BANK0   BANK1   BANK2   BANK3   BANK4   BANK5   BANK6   BANK7   BANK8   BANK9  BANK10  BANK1
      +1  BANK12  BANK13  BANK14
  1330 ;;      Params:         0       0       0       0       0       0       0       0       0       0       0       0       
      +0       0       0       0
  1331 ;;      Locals:         0       0       0       0       0       0       0       0       0       0       0       0       
      +0       0       0       0
  1332 ;;      Temps:          0       0       0       0       0       0       0       0       0       0       0       0       
      +0       0       0       0
  1333 ;;      Totals:         0       0       0       0       0       0       0       0       0       0       0       0       
      +0       0       0       0
  1334 ;;Total ram usage:        0 bytes
  1335 ;; Hardware stack levels used:    1
  1336 ;; Hardware stack levels required when called:    4
  1337 ;; This function calls:
  1338 ;;		Nothing
  1339 ;; This function is called by:
  1340 ;;		_SYSTEM_Initialize
  1341 ;; This function uses a non-reentrant model
  1342 ;;
  1343                           
  1344                           	psect	text15
  1345  000F22                     __ptext15:
  1346                           	opt stack 0
  1347  000F22                     _PIN_MANAGER_Initialize:
  1348                           	opt stack 25
  1349                           
  1350                           ;pin_manager.c: 56: LATE = 0x00;
  1351                           
  1352                           ;incstack = 0
  1353  000F22  0E00               	movlw	0
  1354  000F24  6E87               	movwf	3975,c	;volatile
  1355                           
  1356                           ;pin_manager.c: 57: LATD = 0x00;
  1357  000F26  0E00               	movlw	0
  1358  000F28  6E86               	movwf	3974,c	;volatile
  1359                           
  1360                           ;pin_manager.c: 58: LATA = 0x00;
  1361  000F2A  0E00               	movlw	0
  1362  000F2C  6E83               	movwf	3971,c	;volatile
  1363                           
  1364                           ;pin_manager.c: 59: LATB = 0x00;
  1365  000F2E  0E00               	movlw	0
  1366  000F30  6E84               	movwf	3972,c	;volatile
  1367                           
  1368                           ;pin_manager.c: 60: LATC = 0x00;
  1369  000F32  0E00               	movlw	0
  1370  000F34  6E85               	movwf	3973,c	;volatile
  1371                           
  1372                           ;pin_manager.c: 65: TRISE = 0x07;
  1373  000F36  0E07               	movlw	7
  1374  000F38  6E8C               	movwf	3980,c	;volatile
  1375                           
  1376                           ;pin_manager.c: 66: TRISA = 0xFF;
  1377  000F3A  6888               	setf	3976,c	;volatile
  1378                           
  1379                           ;pin_manager.c: 67: TRISB = 0x78;
  1380  000F3C  0E78               	movlw	120
  1381  000F3E  6E89               	movwf	3977,c	;volatile
  1382                           
  1383                           ;pin_manager.c: 68: TRISC = 0xFF;
  1384  000F40  688A               	setf	3978,c	;volatile
  1385                           
  1386                           ;pin_manager.c: 69: TRISD = 0xFF;
  1387  000F42  688B               	setf	3979,c	;volatile
  1388                           
  1389                           ;pin_manager.c: 74: ANSELC = 0x7F;
  1390  000F44  0E7F               	movlw	127
  1391  000F46  010F               	movlb	15	; () banked
  1392  000F48  6F21               	movwf	33,b	;volatile
  1393                           
  1394                           ;pin_manager.c: 75: ANSELB = 0x00;
  1395  000F4A  0E00               	movlw	0
  1396  000F4C  010F               	movlb	15	; () banked
  1397  000F4E  6F19               	movwf	25,b	;volatile
  1398                           
  1399                           ;pin_manager.c: 76: ANSELD = 0x00;
  1400  000F50  0E00               	movlw	0
  1401  000F52  010F               	movlb	15	; () banked
  1402  000F54  6F26               	movwf	38,b	;volatile
  1403                           
  1404                           ;pin_manager.c: 77: ANSELE = 0x07;
  1405  000F56  0E07               	movlw	7
  1406  000F58  010F               	movlb	15	; () banked
  1407  000F5A  6F2E               	movwf	46,b	;volatile
  1408                           
  1409                           ;pin_manager.c: 78: ANSELA = 0xFE;
  1410  000F5C  0EFE               	movlw	254
  1411  000F5E  010F               	movlb	15	; () banked
  1412  000F60  6F11               	movwf	17,b	;volatile
  1413                           
  1414                           ; BSR set to: 15
  1415                           ;pin_manager.c: 83: WPUD = 0xFF;
  1416  000F62  010F               	movlb	15	; () banked
  1417  000F64  6925               	setf	37,b	;volatile
  1418                           
  1419                           ;pin_manager.c: 84: WPUE = 0x0F;
  1420  000F66  0E0F               	movlw	15
  1421  000F68  010F               	movlb	15	; () banked
  1422  000F6A  6F2D               	movwf	45,b	;volatile
  1423                           
  1424                           ;pin_manager.c: 85: WPUB = 0x00;
  1425  000F6C  0E00               	movlw	0
  1426  000F6E  010F               	movlb	15	; () banked
  1427  000F70  6F18               	movwf	24,b	;volatile
  1428                           
  1429                           ;pin_manager.c: 86: WPUA = 0xFE;
  1430  000F72  0EFE               	movlw	254
  1431  000F74  010F               	movlb	15	; () banked
  1432  000F76  6F10               	movwf	16,b	;volatile
  1433                           
  1434                           ;pin_manager.c: 87: WPUC = 0x77;
  1435  000F78  0E77               	movlw	119
  1436  000F7A  010F               	movlb	15	; () banked
  1437  000F7C  6F20               	movwf	32,b	;volatile
  1438                           
  1439                           ;pin_manager.c: 92: ODCONE = 0x00;
  1440  000F7E  0E00               	movlw	0
  1441  000F80  010F               	movlb	15	; () banked
  1442  000F82  6F2C               	movwf	44,b	;volatile
  1443                           
  1444                           ;pin_manager.c: 93: ODCONA = 0x00;
  1445  000F84  0E00               	movlw	0
  1446  000F86  010F               	movlb	15	; () banked
  1447  000F88  6F0F               	movwf	15,b	;volatile
  1448                           
  1449                           ;pin_manager.c: 94: ODCONB = 0x00;
  1450  000F8A  0E00               	movlw	0
  1451  000F8C  010F               	movlb	15	; () banked
  1452  000F8E  6F17               	movwf	23,b	;volatile
  1453                           
  1454                           ;pin_manager.c: 95: ODCONC = 0x00;
  1455  000F90  0E00               	movlw	0
  1456  000F92  010F               	movlb	15	; () banked
  1457  000F94  6F1F               	movwf	31,b	;volatile
  1458                           
  1459                           ;pin_manager.c: 96: ODCOND = 0x00;
  1460  000F96  0E00               	movlw	0
  1461  000F98  010F               	movlb	15	; () banked
  1462  000F9A  6F24               	movwf	36,b	;volatile
  1463                           
  1464                           ; BSR set to: 15
  1465  000F9C  0012               	return		;funcret
  1466  000F9E                     __end_of_PIN_MANAGER_Initialize:
  1467                           	opt stack 0
  1468                           tosu	equ	0xFFF
  1469                           tosh	equ	0xFFE
  1470                           tosl	equ	0xFFD
  1471                           pclath	equ	0xFFA
  1472                           tblptru	equ	0xFF8
  1473                           tblptrh	equ	0xFF7
  1474                           tblptrl	equ	0xFF6
  1475                           tablat	equ	0xFF5
  1476                           prodh	equ	0xFF4
  1477                           prodl	equ	0xFF3
  1478                           intcon	equ	0xFF2
  1479                           status	equ	0xFD8
  1480                           
  1481 ;; *************** function _OSCILLATOR_Initialize *****************
  1482 ;; Defined at:
  1483 ;;		line 116 in file "mcc_generated_files/mcc.c"
  1484 ;; Parameters:    Size  Location     Type
  1485 ;;		None
  1486 ;; Auto vars:     Size  Location     Type
  1487 ;;		None
  1488 ;; Return value:  Size  Location     Type
  1489 ;;                  1    wreg      void 
  1490 ;; Registers used:
  1491 ;;		wreg, status,2
  1492 ;; Tracked objects:
  1493 ;;		On entry : 0/0
  1494 ;;		On exit  : 0/0
  1495 ;;		Unchanged: 0/0
  1496 ;; Data sizes:     COMRAM   BANK0   BANK1   BANK2   BANK3   BANK4   BANK5   BANK6   BANK7   BANK8   BANK9  BANK10  BANK1
      +1  BANK12  BANK13  BANK14
  1497 ;;      Params:         0       0       0       0       0       0       0       0       0       0       0       0       
      +0       0       0       0
  1498 ;;      Locals:         0       0       0       0       0       0       0       0       0       0       0       0       
      +0       0       0       0
  1499 ;;      Temps:          0       0       0       0       0       0       0       0       0       0       0       0       
      +0       0       0       0
  1500 ;;      Totals:         0       0       0       0       0       0       0       0       0       0       0       0       
      +0       0       0       0
  1501 ;;Total ram usage:        0 bytes
  1502 ;; Hardware stack levels used:    1
  1503 ;; Hardware stack levels required when called:    4
  1504 ;; This function calls:
  1505 ;;		Nothing
  1506 ;; This function is called by:
  1507 ;;		_SYSTEM_Initialize
  1508 ;; This function uses a non-reentrant model
  1509 ;;
  1510                           
  1511                           	psect	text16
  1512  0010EE                     __ptext16:
  1513                           	opt stack 0
  1514  0010EE                     _OSCILLATOR_Initialize:
  1515                           	opt stack 25
  1516                           
  1517                           ;mcc.c: 119: OSCCON1 = 0x60;
  1518                           
  1519                           ; BSR set to: 15
  1520                           ;incstack = 0
  1521  0010EE  0E60               	movlw	96
  1522  0010F0  010E               	movlb	14	; () banked
  1523  0010F2  6FD8               	movwf	216,b	;volatile
  1524                           
  1525                           ;mcc.c: 121: OSCCON3 = 0x40;
  1526  0010F4  0E40               	movlw	64
  1527  0010F6  010E               	movlb	14	; () banked
  1528  0010F8  6FDA               	movwf	218,b	;volatile
  1529                           
  1530                           ;mcc.c: 123: OSCEN = 0x00;
  1531  0010FA  0E00               	movlw	0
  1532  0010FC  010E               	movlb	14	; () banked
  1533  0010FE  6FDC               	movwf	220,b	;volatile
  1534                           
  1535                           ;mcc.c: 125: OSCFRQ = 0x08;
  1536  001100  0E08               	movlw	8
  1537  001102  010E               	movlb	14	; () banked
  1538  001104  6FDE               	movwf	222,b	;volatile
  1539                           
  1540                           ;mcc.c: 127: OSCTUNE = 0x00;
  1541  001106  0E00               	movlw	0
  1542  001108  010E               	movlb	14	; () banked
  1543  00110A  6FDD               	movwf	221,b	;volatile
  1544                           
  1545                           ; BSR set to: 14
  1546  00110C  0012               	return		;funcret
  1547  00110E                     __end_of_OSCILLATOR_Initialize:
  1548                           	opt stack 0
  1549                           tosu	equ	0xFFF
  1550                           tosh	equ	0xFFE
  1551                           tosl	equ	0xFFD
  1552                           pclath	equ	0xFFA
  1553                           tblptru	equ	0xFF8
  1554                           tblptrh	equ	0xFF7
  1555                           tblptrl	equ	0xFF6
  1556                           tablat	equ	0xFF5
  1557                           prodh	equ	0xFF4
  1558                           prodl	equ	0xFF3
  1559                           intcon	equ	0xFF2
  1560                           status	equ	0xFD8
  1561                           
  1562 ;; *************** function _INTERRUPT_Initialize *****************
  1563 ;; Defined at:
  1564 ;;		line 51 in file "mcc_generated_files/interrupt_manager.c"
  1565 ;; Parameters:    Size  Location     Type
  1566 ;;		None
  1567 ;; Auto vars:     Size  Location     Type
  1568 ;;		None
  1569 ;; Return value:  Size  Location     Type
  1570 ;;                  1    wreg      void 
  1571 ;; Registers used:
  1572 ;;		None
  1573 ;; Tracked objects:
  1574 ;;		On entry : 0/0
  1575 ;;		On exit  : 0/0
  1576 ;;		Unchanged: 0/0
  1577 ;; Data sizes:     COMRAM   BANK0   BANK1   BANK2   BANK3   BANK4   BANK5   BANK6   BANK7   BANK8   BANK9  BANK10  BANK1
      +1  BANK12  BANK13  BANK14
  1578 ;;      Params:         0       0       0       0       0       0       0       0       0       0       0       0       
      +0       0       0       0
  1579 ;;      Locals:         0       0       0       0       0       0       0       0       0       0       0       0       
      +0       0       0       0
  1580 ;;      Temps:          0       0       0       0       0       0       0       0       0       0       0       0       
      +0       0       0       0
  1581 ;;      Totals:         0       0       0       0       0       0       0       0       0       0       0       0       
      +0       0       0       0
  1582 ;;Total ram usage:        0 bytes
  1583 ;; Hardware stack levels used:    1
  1584 ;; Hardware stack levels required when called:    4
  1585 ;; This function calls:
  1586 ;;		Nothing
  1587 ;; This function is called by:
  1588 ;;		_SYSTEM_Initialize
  1589 ;; This function uses a non-reentrant model
  1590 ;;
  1591                           
  1592                           	psect	text17
  1593  001188                     __ptext17:
  1594                           	opt stack 0
  1595  001188                     _INTERRUPT_Initialize:
  1596                           	opt stack 25
  1597                           
  1598                           ;interrupt_manager.c: 54: INTCONbits.IPEN = 1;
  1599                           
  1600                           ; BSR set to: 14
  1601                           ;incstack = 0
  1602  001188  8AF2               	bsf	intcon,5,c	;volatile
  1603                           
  1604                           ;interrupt_manager.c: 59: IPR4bits.TMR1IP = 1;
  1605  00118A  010E               	movlb	14	; () banked
  1606  00118C  81BE               	bsf	190,0,b	;volatile
  1607                           
  1608                           ; BSR set to: 14
  1609  00118E  0012               	return		;funcret
  1610  001190                     __end_of_INTERRUPT_Initialize:
  1611                           	opt stack 0
  1612                           tosu	equ	0xFFF
  1613                           tosh	equ	0xFFE
  1614                           tosl	equ	0xFFD
  1615                           pclath	equ	0xFFA
  1616                           tblptru	equ	0xFF8
  1617                           tblptrh	equ	0xFF7
  1618                           tblptrl	equ	0xFF6
  1619                           tablat	equ	0xFF5
  1620                           prodh	equ	0xFF4
  1621                           prodl	equ	0xFF3
  1622                           intcon	equ	0xFF2
  1623                           status	equ	0xFD8
  1624                           
  1625 ;; *************** function _InitApp *****************
  1626 ;; Defined at:
  1627 ;;		line 3 in file "app/app_init.c"
  1628 ;; Parameters:    Size  Location     Type
  1629 ;;		None
  1630 ;; Auto vars:     Size  Location     Type
  1631 ;;		None
  1632 ;; Return value:  Size  Location     Type
  1633 ;;                  1    wreg      void 
  1634 ;; Registers used:
  1635 ;;		None
  1636 ;; Tracked objects:
  1637 ;;		On entry : 0/0
  1638 ;;		On exit  : 0/0
  1639 ;;		Unchanged: 0/0
  1640 ;; Data sizes:     COMRAM   BANK0   BANK1   BANK2   BANK3   BANK4   BANK5   BANK6   BANK7   BANK8   BANK9  BANK10  BANK1
      +1  BANK12  BANK13  BANK14
  1641 ;;      Params:         0       0       0       0       0       0       0       0       0       0       0       0       
      +0       0       0       0
  1642 ;;      Locals:         0       0       0       0       0       0       0       0       0       0       0       0       
      +0       0       0       0
  1643 ;;      Temps:          0       0       0       0       0       0       0       0       0       0       0       0       
      +0       0       0       0
  1644 ;;      Totals:         0       0       0       0       0       0       0       0       0       0       0       0       
      +0       0       0       0
  1645 ;;Total ram usage:        0 bytes
  1646 ;; Hardware stack levels used:    1
  1647 ;; Hardware stack levels required when called:    4
  1648 ;; This function calls:
  1649 ;;		Nothing
  1650 ;; This function is called by:
  1651 ;;		_main
  1652 ;; This function uses a non-reentrant model
  1653 ;;
  1654                           
  1655                           	psect	text18
  1656  0011A6                     __ptext18:
  1657                           	opt stack 0
  1658  0011A6                     _InitApp:
  1659                           	opt stack 26
  1660                           
  1661                           ;app_init.c: 5: return;
  1662                           
  1663                           ; BSR set to: 14
  1664                           ;incstack = 0
  1665  0011A6  0012               	return		;funcret
  1666  0011A8                     __end_of_InitApp:
  1667                           	opt stack 0
  1668                           tosu	equ	0xFFF
  1669                           tosh	equ	0xFFE
  1670                           tosl	equ	0xFFD
  1671                           pclath	equ	0xFFA
  1672                           tblptru	equ	0xFF8
  1673                           tblptrh	equ	0xFF7
  1674                           tblptrl	equ	0xFF6
  1675                           tablat	equ	0xFF5
  1676                           prodh	equ	0xFF4
  1677                           prodl	equ	0xFF3
  1678                           intcon	equ	0xFF2
  1679                           status	equ	0xFD8
  1680                           
  1681 ;; *************** function _INTERRUPT_InterruptManagerHigh *****************
  1682 ;; Defined at:
  1683 ;;		line 64 in file "mcc_generated_files/interrupt_manager.c"
  1684 ;; Parameters:    Size  Location     Type
  1685 ;;		None
  1686 ;; Auto vars:     Size  Location     Type
  1687 ;;		None
  1688 ;; Return value:  Size  Location     Type
  1689 ;;                  1    wreg      void 
  1690 ;; Registers used:
  1691 ;;		wreg, status,2, status,0, pclat, tosl, cstack
  1692 ;; Tracked objects:
  1693 ;;		On entry : 0/0
  1694 ;;		On exit  : 0/0
  1695 ;;		Unchanged: 0/0
  1696 ;; Data sizes:     COMRAM   BANK0   BANK1   BANK2   BANK3   BANK4   BANK5   BANK6   BANK7   BANK8   BANK9  BANK10  BANK1
      +1  BANK12  BANK13  BANK14
  1697 ;;      Params:         0       0       0       0       0       0       0       0       0       0       0       0       
      +0       0       0       0
  1698 ;;      Locals:         0       0       0       0       0       0       0       0       0       0       0       0       
      +0       0       0       0
  1699 ;;      Temps:         14       0       0       0       0       0       0       0       0       0       0       0       
      +0       0       0       0
  1700 ;;      Totals:        14       0       0       0       0       0       0       0       0       0       0       0       
      +0       0       0       0
  1701 ;;Total ram usage:       14 bytes
  1702 ;; Hardware stack levels used:    1
  1703 ;; Hardware stack levels required when called:    3
  1704 ;; This function calls:
  1705 ;;		_TMR1_ISR
  1706 ;; This function is called by:
  1707 ;;		Interrupt level 2
  1708 ;; This function uses a non-reentrant model
  1709 ;;
  1710                           
  1711                           	psect	intcode
  1712  000008                     __pintcode:
  1713                           	opt stack 0
  1714  000008                     _INTERRUPT_InterruptManagerHigh:
  1715                           	opt stack 24
  1716                           
  1717                           ;incstack = 0
  1718  000008  8221               	bsf	btemp,1,c	;set compiler interrupt flag (level 2)
  1719  00000A  CFFA F001          	movff	pclath,??_INTERRUPT_InterruptManagerHigh
  1720  00000E  CFFB F002          	movff	pclatu,??_INTERRUPT_InterruptManagerHigh+1
  1721  000012  CFE9 F003          	movff	fsr0l,??_INTERRUPT_InterruptManagerHigh+2
  1722  000016  CFEA F004          	movff	fsr0h,??_INTERRUPT_InterruptManagerHigh+3
  1723  00001A  CFE1 F005          	movff	fsr1l,??_INTERRUPT_InterruptManagerHigh+4
  1724  00001E  CFE2 F006          	movff	fsr1h,??_INTERRUPT_InterruptManagerHigh+5
  1725  000022  CFD9 F007          	movff	fsr2l,??_INTERRUPT_InterruptManagerHigh+6
  1726  000026  CFDA F008          	movff	fsr2h,??_INTERRUPT_InterruptManagerHigh+7
  1727  00002A  CFF3 F009          	movff	prodl,??_INTERRUPT_InterruptManagerHigh+8
  1728  00002E  CFF4 F00A          	movff	prodh,??_INTERRUPT_InterruptManagerHigh+9
  1729  000032  CFF6 F00B          	movff	tblptrl,??_INTERRUPT_InterruptManagerHigh+10
  1730  000036  CFF7 F00C          	movff	tblptrh,??_INTERRUPT_InterruptManagerHigh+11
  1731  00003A  CFF8 F00D          	movff	tblptru,??_INTERRUPT_InterruptManagerHigh+12
  1732  00003E  CFF5 F00E          	movff	tablat,??_INTERRUPT_InterruptManagerHigh+13
  1733                           
  1734                           ;interrupt_manager.c: 67: if(PIE4bits.TMR1IE == 1 && PIR4bits.TMR1IF == 1)
  1735  000042  010E               	movlb	14	; () banked
  1736  000044  A1C6               	btfss	198,0,b	;volatile
  1737  000046  D004               	goto	i2l173
  1738                           
  1739                           ; BSR set to: 14
  1740  000048  010E               	movlb	14	; () banked
  1741  00004A  B1CE               	btfsc	206,0,b	;volatile
  1742                           
  1743                           ; BSR set to: 14
  1744                           ;interrupt_manager.c: 68: {
  1745                           ;interrupt_manager.c: 69: TMR1_ISR();
  1746  00004C  ECB1  F008         	call	_TMR1_ISR	;wreg free
  1747  000050                     i2l173:
  1748  000050  C00E  FFF5         	movff	??_INTERRUPT_InterruptManagerHigh+13,tablat
  1749  000054  C00D  FFF8         	movff	??_INTERRUPT_InterruptManagerHigh+12,tblptru
  1750  000058  C00C  FFF7         	movff	??_INTERRUPT_InterruptManagerHigh+11,tblptrh
  1751  00005C  C00B  FFF6         	movff	??_INTERRUPT_InterruptManagerHigh+10,tblptrl
  1752  000060  C00A  FFF4         	movff	??_INTERRUPT_InterruptManagerHigh+9,prodh
  1753  000064  C009  FFF3         	movff	??_INTERRUPT_InterruptManagerHigh+8,prodl
  1754  000068  C008  FFDA         	movff	??_INTERRUPT_InterruptManagerHigh+7,fsr2h
  1755  00006C  C007  FFD9         	movff	??_INTERRUPT_InterruptManagerHigh+6,fsr2l
  1756  000070  C006  FFE2         	movff	??_INTERRUPT_InterruptManagerHigh+5,fsr1h
  1757  000074  C005  FFE1         	movff	??_INTERRUPT_InterruptManagerHigh+4,fsr1l
  1758  000078  C004  FFEA         	movff	??_INTERRUPT_InterruptManagerHigh+3,fsr0h
  1759  00007C  C003  FFE9         	movff	??_INTERRUPT_InterruptManagerHigh+2,fsr0l
  1760  000080  C002  FFFB         	movff	??_INTERRUPT_InterruptManagerHigh+1,pclatu
  1761  000084  C001  FFFA         	movff	??_INTERRUPT_InterruptManagerHigh,pclath
  1762  000088  9221               	bcf	btemp,1,c	;clear compiler interrupt flag (level 2)
  1763  00008A  0011               	retfie		f
  1764  00008C                     __end_of_INTERRUPT_InterruptManagerHigh:
  1765                           	opt stack 0
  1766                           tosu	equ	0xFFF
  1767                           tosh	equ	0xFFE
  1768                           tosl	equ	0xFFD
  1769                           pclatu	equ	0xFFB
  1770                           pclath	equ	0xFFA
  1771                           tblptru	equ	0xFF8
  1772                           tblptrh	equ	0xFF7
  1773                           tblptrl	equ	0xFF6
  1774                           tablat	equ	0xFF5
  1775                           prodh	equ	0xFF4
  1776                           prodl	equ	0xFF3
  1777                           intcon	equ	0xFF2
  1778                           fsr0h	equ	0xFEA
  1779                           fsr0l	equ	0xFE9
  1780                           fsr1h	equ	0xFE2
  1781                           fsr1l	equ	0xFE1
  1782                           fsr2h	equ	0xFDA
  1783                           fsr2l	equ	0xFD9
  1784                           status	equ	0xFD8
  1785                           
  1786 ;; *************** function _TMR1_ISR *****************
  1787 ;; Defined at:
  1788 ;;		line 163 in file "mcc_generated_files/tmr1.c"
  1789 ;; Parameters:    Size  Location     Type
  1790 ;;		None
  1791 ;; Auto vars:     Size  Location     Type
  1792 ;;		None
  1793 ;; Return value:  Size  Location     Type
  1794 ;;                  1    wreg      void 
  1795 ;; Registers used:
  1796 ;;		wreg, status,2, status,0, pclat, tosl, cstack
  1797 ;; Tracked objects:
  1798 ;;		On entry : 0/0
  1799 ;;		On exit  : 0/0
  1800 ;;		Unchanged: 0/0
  1801 ;; Data sizes:     COMRAM   BANK0   BANK1   BANK2   BANK3   BANK4   BANK5   BANK6   BANK7   BANK8   BANK9  BANK10  BANK1
      +1  BANK12  BANK13  BANK14
  1802 ;;      Params:         0       0       0       0       0       0       0       0       0       0       0       0       
      +0       0       0       0
  1803 ;;      Locals:         0       0       0       0       0       0       0       0       0       0       0       0       
      +0       0       0       0
  1804 ;;      Temps:          0       0       0       0       0       0       0       0       0       0       0       0       
      +0       0       0       0
  1805 ;;      Totals:         0       0       0       0       0       0       0       0       0       0       0       0       
      +0       0       0       0
  1806 ;;Total ram usage:        0 bytes
  1807 ;; Hardware stack levels used:    1
  1808 ;; Hardware stack levels required when called:    2
  1809 ;; This function calls:
  1810 ;;		_TMR1_CallBack
  1811 ;; This function is called by:
  1812 ;;		_INTERRUPT_InterruptManagerHigh
  1813 ;; This function uses a non-reentrant model
  1814 ;;
  1815                           
  1816                           	psect	text20
  1817  001162                     __ptext20:
  1818                           	opt stack 0
  1819  001162                     _TMR1_ISR:
  1820                           	opt stack 24
  1821                           
  1822                           ;tmr1.c: 167: PIR4bits.TMR1IF = 0;
  1823                           
  1824                           ;incstack = 0
  1825  001162  010E               	movlb	14	; () banked
  1826  001164  91CE               	bcf	206,0,b	;volatile
  1827                           
  1828                           ; BSR set to: 14
  1829                           ;tmr1.c: 169: TMR1H = (timer1ReloadVal >> 8);
  1830  001166  501C               	movf	_timer1ReloadVal+1,w,c	;volatile
  1831  001168  6ECE               	movwf	4046,c	;volatile
  1832                           
  1833                           ; BSR set to: 14
  1834                           ;tmr1.c: 170: TMR1L = timer1ReloadVal;
  1835  00116A  C01B  FFCD         	movff	_timer1ReloadVal,4045	;volatile
  1836                           
  1837                           ; BSR set to: 14
  1838                           ;tmr1.c: 174: TMR1_CallBack();
  1839  00116E  EC87  F008         	call	_TMR1_CallBack	;wreg free
  1840  001172  0012               	return		;funcret
  1841  001174                     __end_of_TMR1_ISR:
  1842                           	opt stack 0
  1843                           tosu	equ	0xFFF
  1844                           tosh	equ	0xFFE
  1845                           tosl	equ	0xFFD
  1846                           pclatu	equ	0xFFB
  1847                           pclath	equ	0xFFA
  1848                           tblptru	equ	0xFF8
  1849                           tblptrh	equ	0xFF7
  1850                           tblptrl	equ	0xFF6
  1851                           tablat	equ	0xFF5
  1852                           prodh	equ	0xFF4
  1853                           prodl	equ	0xFF3
  1854                           intcon	equ	0xFF2
  1855                           fsr0h	equ	0xFEA
  1856                           fsr0l	equ	0xFE9
  1857                           fsr1h	equ	0xFE2
  1858                           fsr1l	equ	0xFE1
  1859                           fsr2h	equ	0xFDA
  1860                           fsr2l	equ	0xFD9
  1861                           status	equ	0xFD8
  1862                           
  1863 ;; *************** function _TMR1_CallBack *****************
  1864 ;; Defined at:
  1865 ;;		line 177 in file "mcc_generated_files/tmr1.c"
  1866 ;; Parameters:    Size  Location     Type
  1867 ;;		None
  1868 ;; Auto vars:     Size  Location     Type
  1869 ;;		None
  1870 ;; Return value:  Size  Location     Type
  1871 ;;                  1    wreg      void 
  1872 ;; Registers used:
  1873 ;;		wreg, status,2, status,0, pclat, tosl, cstack
  1874 ;; Tracked objects:
  1875 ;;		On entry : 0/0
  1876 ;;		On exit  : 0/0
  1877 ;;		Unchanged: 0/0
  1878 ;; Data sizes:     COMRAM   BANK0   BANK1   BANK2   BANK3   BANK4   BANK5   BANK6   BANK7   BANK8   BANK9  BANK10  BANK1
      +1  BANK12  BANK13  BANK14
  1879 ;;      Params:         0       0       0       0       0       0       0       0       0       0       0       0       
      +0       0       0       0
  1880 ;;      Locals:         0       0       0       0       0       0       0       0       0       0       0       0       
      +0       0       0       0
  1881 ;;      Temps:          0       0       0       0       0       0       0       0       0       0       0       0       
      +0       0       0       0
  1882 ;;      Totals:         0       0       0       0       0       0       0       0       0       0       0       0       
      +0       0       0       0
  1883 ;;Total ram usage:        0 bytes
  1884 ;; Hardware stack levels used:    1
  1885 ;; Hardware stack levels required when called:    1
  1886 ;; This function calls:
  1887 ;;		Absolute function
  1888 ;;		_TMR1_DefaultInterruptHandler
  1889 ;; This function is called by:
  1890 ;;		_TMR1_ISR
  1891 ;; This function uses a non-reentrant model
  1892 ;;
  1893                           
  1894                           	psect	text21
  1895  00110E                     __ptext21:
  1896                           	opt stack 0
  1897  00110E                     _TMR1_CallBack:
  1898                           	opt stack 24
  1899                           
  1900                           ;tmr1.c: 180: if(TMR1_InterruptHandler)
  1901                           
  1902                           ;incstack = 0
  1903  00110E  5019               	movf	_TMR1_InterruptHandler,w,c
  1904  001110  101A               	iorwf	_TMR1_InterruptHandler+1,w,c
  1905  001112  B4D8               	btfsc	status,2,c
  1906  001114  0012               	return	
  1907                           
  1908                           ;tmr1.c: 181: {
  1909                           ;tmr1.c: 182: TMR1_InterruptHandler();
  1910  001116  D801               	call	i2u5_48
  1911  001118  0012               	return	
  1912  00111A                     i2u5_48:
  1913  00111A  0005               	push	
  1914  00111C  6EFA               	movwf	pclath,c
  1915  00111E  5019               	movf	_TMR1_InterruptHandler,w,c
  1916  001120  6EFD               	movwf	tosl,c
  1917  001122  501A               	movf	_TMR1_InterruptHandler+1,w,c
  1918  001124  6EFE               	movwf	tosh,c
  1919  001126  6AFF               	clrf	tosu,c
  1920  001128  50FA               	movf	pclath,w,c
  1921  00112A  0012               	return		;indir
  1922  00112C                     __end_of_TMR1_CallBack:
  1923                           	opt stack 0
  1924                           tosu	equ	0xFFF
  1925                           tosh	equ	0xFFE
  1926                           tosl	equ	0xFFD
  1927                           pclatu	equ	0xFFB
  1928                           pclath	equ	0xFFA
  1929                           tblptru	equ	0xFF8
  1930                           tblptrh	equ	0xFF7
  1931                           tblptrl	equ	0xFF6
  1932                           tablat	equ	0xFF5
  1933                           prodh	equ	0xFF4
  1934                           prodl	equ	0xFF3
  1935                           intcon	equ	0xFF2
  1936                           fsr0h	equ	0xFEA
  1937                           fsr0l	equ	0xFE9
  1938                           fsr1h	equ	0xFE2
  1939                           fsr1l	equ	0xFE1
  1940                           fsr2h	equ	0xFDA
  1941                           fsr2l	equ	0xFD9
  1942                           status	equ	0xFD8
  1943                           
  1944 ;; *************** function _TMR1_DefaultInterruptHandler *****************
  1945 ;; Defined at:
  1946 ;;		line 190 in file "mcc_generated_files/tmr1.c"
  1947 ;; Parameters:    Size  Location     Type
  1948 ;;		None
  1949 ;; Auto vars:     Size  Location     Type
  1950 ;;		None
  1951 ;; Return value:  Size  Location     Type
  1952 ;;                  1    wreg      void 
  1953 ;; Registers used:
  1954 ;;		wreg, status,2
  1955 ;; Tracked objects:
  1956 ;;		On entry : 0/0
  1957 ;;		On exit  : 0/0
  1958 ;;		Unchanged: 0/0
  1959 ;; Data sizes:     COMRAM   BANK0   BANK1   BANK2   BANK3   BANK4   BANK5   BANK6   BANK7   BANK8   BANK9  BANK10  BANK1
      +1  BANK12  BANK13  BANK14
  1960 ;;      Params:         0       0       0       0       0       0       0       0       0       0       0       0       
      +0       0       0       0
  1961 ;;      Locals:         0       0       0       0       0       0       0       0       0       0       0       0       
      +0       0       0       0
  1962 ;;      Temps:          0       0       0       0       0       0       0       0       0       0       0       0       
      +0       0       0       0
  1963 ;;      Totals:         0       0       0       0       0       0       0       0       0       0       0       0       
      +0       0       0       0
  1964 ;;Total ram usage:        0 bytes
  1965 ;; Hardware stack levels used:    1
  1966 ;; This function calls:
  1967 ;;		Nothing
  1968 ;; This function is called by:
  1969 ;;		_TMR1_Initialize
  1970 ;;		_TMR1_CallBack
  1971 ;; This function uses a non-reentrant model
  1972 ;;
  1973                           
  1974                           	psect	text22
  1975  00117E                     __ptext22:
  1976                           	opt stack 0
  1977  00117E                     _TMR1_DefaultInterruptHandler:
  1978                           	opt stack 24
  1979                           
  1980                           ;tmr1.c: 193: TMR1IF = ((T_BOOLEAN)0u);
  1981                           
  1982                           ;incstack = 0
  1983  00117E  010E               	movlb	14	; () banked
  1984  001180  91CE               	bcf	206,0,b	;volatile
  1985                           
  1986                           ; BSR set to: 14
  1987                           ;tmr1.c: 194: sch_alarm = ((T_BOOLEAN)1u);
  1988  001182  0E01               	movlw	1
  1989  001184  6E20               	movwf	_sch_alarm,c
  1990                           
  1991                           ; BSR set to: 14
  1992  001186  0012               	return		;funcret
  1993  001188                     __end_of_TMR1_DefaultInterruptHandler:
  1994                           	opt stack 0
  1995                           tosu	equ	0xFFF
  1996                           tosh	equ	0xFFE
  1997                           tosl	equ	0xFFD
  1998                           pclatu	equ	0xFFB
  1999                           pclath	equ	0xFFA
  2000                           tblptru	equ	0xFF8
  2001                           tblptrh	equ	0xFF7
  2002                           tblptrl	equ	0xFF6
  2003                           tablat	equ	0xFF5
  2004                           prodh	equ	0xFF4
  2005                           prodl	equ	0xFF3
  2006                           intcon	equ	0xFF2
  2007                           fsr0h	equ	0xFEA
  2008                           fsr0l	equ	0xFE9
  2009                           fsr1h	equ	0xFE2
  2010                           fsr1l	equ	0xFE1
  2011                           fsr2h	equ	0xFDA
  2012                           fsr2l	equ	0xFD9
  2013                           status	equ	0xFD8
  2014                           tosu	equ	0xFFF
  2015                           tosh	equ	0xFFE
  2016                           tosl	equ	0xFFD
  2017                           pclatu	equ	0xFFB
  2018                           pclath	equ	0xFFA
  2019                           tblptru	equ	0xFF8
  2020                           tblptrh	equ	0xFF7
  2021                           tblptrl	equ	0xFF6
  2022                           tablat	equ	0xFF5
  2023                           prodh	equ	0xFF4
  2024                           prodl	equ	0xFF3
  2025                           intcon	equ	0xFF2
  2026                           fsr0h	equ	0xFEA
  2027                           fsr0l	equ	0xFE9
  2028                           fsr1h	equ	0xFE2
  2029                           fsr1l	equ	0xFE1
  2030                           fsr2h	equ	0xFDA
  2031                           fsr2l	equ	0xFD9
  2032                           status	equ	0xFD8
  2033                           
  2034                           	psect	text23
  2035  000000                     __ptext23:
  2036                           	opt stack 0
  2037                           tosu	equ	0xFFF
  2038                           tosh	equ	0xFFE
  2039                           tosl	equ	0xFFD
  2040                           pclatu	equ	0xFFB
  2041                           pclath	equ	0xFFA
  2042                           tblptru	equ	0xFF8
  2043                           tblptrh	equ	0xFF7
  2044                           tblptrl	equ	0xFF6
  2045                           tablat	equ	0xFF5
  2046                           prodh	equ	0xFF4
  2047                           prodl	equ	0xFF3
  2048                           intcon	equ	0xFF2
  2049                           fsr0h	equ	0xFEA
  2050                           fsr0l	equ	0xFE9
  2051                           fsr1h	equ	0xFE2
  2052                           fsr1l	equ	0xFE1
  2053                           fsr2h	equ	0xFDA
  2054                           fsr2l	equ	0xFD9
  2055                           status	equ	0xFD8
  2056                           
  2057                           	psect	rparam
  2058  0000                     tosu	equ	0xFFF
  2059                           tosh	equ	0xFFE
  2060                           tosl	equ	0xFFD
  2061                           pclatu	equ	0xFFB
  2062                           pclath	equ	0xFFA
  2063                           tblptru	equ	0xFF8
  2064                           tblptrh	equ	0xFF7
  2065                           tblptrl	equ	0xFF6
  2066                           tablat	equ	0xFF5
  2067                           prodh	equ	0xFF4
  2068                           prodl	equ	0xFF3
  2069                           intcon	equ	0xFF2
  2070                           fsr0h	equ	0xFEA
  2071                           fsr0l	equ	0xFE9
  2072                           fsr1h	equ	0xFE2
  2073                           fsr1l	equ	0xFE1
  2074                           fsr2h	equ	0xFDA
  2075                           fsr2l	equ	0xFD9
  2076                           status	equ	0xFD8
  2077                           
  2078                           	psect	temp
  2079  000021                     btemp:
  2080                           	opt stack 0
  2081  000021                     	ds	1
  2082  0000                     int$flags	set	btemp
  2083                           tosu	equ	0xFFF
  2084                           tosh	equ	0xFFE
  2085                           tosl	equ	0xFFD
  2086                           pclatu	equ	0xFFB
  2087                           pclath	equ	0xFFA
  2088                           tblptru	equ	0xFF8
  2089                           tblptrh	equ	0xFF7
  2090                           tblptrl	equ	0xFF6
  2091                           tablat	equ	0xFF5
  2092                           prodh	equ	0xFF4
  2093                           prodl	equ	0xFF3
  2094                           intcon	equ	0xFF2
  2095                           fsr0h	equ	0xFEA
  2096                           fsr0l	equ	0xFE9
  2097                           fsr1h	equ	0xFE2
  2098                           fsr1l	equ	0xFE1
  2099                           fsr2h	equ	0xFDA
  2100                           fsr2l	equ	0xFD9
  2101                           status	equ	0xFD8


Data Sizes:
    Strings     0
    Constant    32
    Data        0
    BSS         4
    Persistent  4
    Stack       0

Auto Spaces:
    Space          Size  Autos    Used
    COMRAM           94     24      32
    BANK0           160      0       0
    BANK1           256      0       0
    BANK2           256      0       0
    BANK3           256      0       0
    BANK4           256      0       0
    BANK5           256      0       0
    BANK6           256      0       0
    BANK7           256      0       0
    BANK8           256      0       0
    BANK9           256      0       0
    BANK10          256      0       0
    BANK11          256      0       0
    BANK12          256      0       0
    BANK13          256      0       0
    BANK14          126      0       0

Pointer List with Targets:

    tasks_list	const PTR FTN()void [16] size(2) Largest target is 1
		 -> periodic_task_1024tk(), periodic_task_32tk(), TASK_DUMMY(), periodic_task_8tk(), 
		 -> periodic_task_4tk(), periodic_task_2tk(), periodic_task_tk(), 

    TMR1_SetInterruptHandler@InterruptHandler	PTR void  size(2) Largest target is 1
		 -> TMR1_DefaultInterruptHandler(), 

    TMR1_InterruptHandler	PTR FTN()void  size(2) Largest target is 1
		 -> Absolute function(), TMR1_DefaultInterruptHandler(), 


Critical Paths under _main in COMRAM

    _main->_scheduler_loop
    _scheduler_loop->_sched_util_task_finder
    _periodic_task_32tk->_app_LED_Task
    _SYSTEM_Initialize->_TMR1_Initialize
    _TMR1_Initialize->_TMR1_SetInterruptHandler

Critical Paths under _INTERRUPT_InterruptManagerHigh in COMRAM

    None.

Critical Paths under _main in BANK0

    None.

Critical Paths under _INTERRUPT_InterruptManagerHigh in BANK0

    None.

Critical Paths under _main in BANK1

    None.

Critical Paths under _INTERRUPT_InterruptManagerHigh in BANK1

    None.

Critical Paths under _main in BANK2

    None.

Critical Paths under _INTERRUPT_InterruptManagerHigh in BANK2

    None.

Critical Paths under _main in BANK3

    None.

Critical Paths under _INTERRUPT_InterruptManagerHigh in BANK3

    None.

Critical Paths under _main in BANK4

    None.

Critical Paths under _INTERRUPT_InterruptManagerHigh in BANK4

    None.

Critical Paths under _main in BANK5

    None.

Critical Paths under _INTERRUPT_InterruptManagerHigh in BANK5

    None.

Critical Paths under _main in BANK6

    None.

Critical Paths under _INTERRUPT_InterruptManagerHigh in BANK6

    None.

Critical Paths under _main in BANK7

    None.

Critical Paths under _INTERRUPT_InterruptManagerHigh in BANK7

    None.

Critical Paths under _main in BANK8

    None.

Critical Paths under _INTERRUPT_InterruptManagerHigh in BANK8

    None.

Critical Paths under _main in BANK9

    None.

Critical Paths under _INTERRUPT_InterruptManagerHigh in BANK9

    None.

Critical Paths under _main in BANK10

    None.

Critical Paths under _INTERRUPT_InterruptManagerHigh in BANK10

    None.

Critical Paths under _main in BANK11

    None.

Critical Paths under _INTERRUPT_InterruptManagerHigh in BANK11

    None.

Critical Paths under _main in BANK12

    None.

Critical Paths under _INTERRUPT_InterruptManagerHigh in BANK12

    None.

Critical Paths under _main in BANK13

    None.

Critical Paths under _INTERRUPT_InterruptManagerHigh in BANK13

    None.

Critical Paths under _main in BANK14

    None.

Critical Paths under _INTERRUPT_InterruptManagerHigh in BANK14

    None.

Call Graph Tables:

 ---------------------------------------------------------------------------------
 (Depth) Function   	        Calls       Base Space   Used Autos Params    Refs
 ---------------------------------------------------------------------------------
 (0) _main                                                 0     0      0     265
                            _InitApp
                  _SYSTEM_Initialize
                     _scheduler_loop
 ---------------------------------------------------------------------------------
 (1) _scheduler_loop                                       3     3      0     179
                                             21 COMRAM     3     3      0
                         _TASK_DUMMY *
               _periodic_task_1024tk *
                  _periodic_task_2tk *
                 _periodic_task_32tk *
                  _periodic_task_4tk *
                  _periodic_task_8tk *
                   _periodic_task_tk *
             _sched_util_task_finder
 ---------------------------------------------------------------------------------
 (2) _sched_util_task_finder                               7     5      2     179
                                             14 COMRAM     7     5      2
 ---------------------------------------------------------------------------------
 (2) _periodic_task_tk                                     0     0      0       0
 ---------------------------------------------------------------------------------
 (2) _periodic_task_8tk                                    0     0      0       0
 ---------------------------------------------------------------------------------
 (2) _periodic_task_4tk                                    0     0      0       0
 ---------------------------------------------------------------------------------
 (2) _periodic_task_32tk                                   0     0      0       0
                       _app_LED_Task
 ---------------------------------------------------------------------------------
 (3) _app_LED_Task                                         1     1      0       0
                                             14 COMRAM     1     1      0
 ---------------------------------------------------------------------------------
 (2) _periodic_task_2tk                                    0     0      0       0
 ---------------------------------------------------------------------------------
 (2) _periodic_task_1024tk                                 0     0      0       0
 ---------------------------------------------------------------------------------
 (2) _TASK_DUMMY                                           0     0      0       0
 ---------------------------------------------------------------------------------
 (1) _SYSTEM_Initialize                                    0     0      0      86
               _INTERRUPT_Initialize
              _OSCILLATOR_Initialize
             _PIN_MANAGER_Initialize
                    _TMR1_Initialize
 ---------------------------------------------------------------------------------
 (2) _TMR1_Initialize                                      2     2      0      86
                                             16 COMRAM     2     2      0
           _TMR1_SetInterruptHandler
                    _TMR1_StartTimer
 ---------------------------------------------------------------------------------
 (3) _TMR1_StartTimer                                      0     0      0       0
 ---------------------------------------------------------------------------------
 (3) _TMR1_SetInterruptHandler                             2     0      2      86
                                             14 COMRAM     2     0      2
 ---------------------------------------------------------------------------------
 (2) _PIN_MANAGER_Initialize                               0     0      0       0
 ---------------------------------------------------------------------------------
 (2) _OSCILLATOR_Initialize                                0     0      0       0
 ---------------------------------------------------------------------------------
 (2) _INTERRUPT_Initialize                                 0     0      0       0
 ---------------------------------------------------------------------------------
 (1) _InitApp                                              0     0      0       0
 ---------------------------------------------------------------------------------
 Estimated maximum stack depth 3
 ---------------------------------------------------------------------------------
 (Depth) Function   	        Calls       Base Space   Used Autos Params    Refs
 ---------------------------------------------------------------------------------
 (4) _INTERRUPT_InterruptManagerHigh                      14    14      0       0
                                              0 COMRAM    14    14      0
                           _TMR1_ISR
 ---------------------------------------------------------------------------------
 (5) _TMR1_ISR                                             0     0      0       0
                      _TMR1_CallBack
 ---------------------------------------------------------------------------------
 (6) _TMR1_CallBack                                        0     0      0       0
                   Absolute function *
       _TMR1_DefaultInterruptHandler *
 ---------------------------------------------------------------------------------
 (7) _TMR1_DefaultInterruptHandler                         0     0      0       0
 ---------------------------------------------------------------------------------
 (7) Absolute function(Fake)                               0     0      0       0
 ---------------------------------------------------------------------------------
 Estimated maximum stack depth 7
 ---------------------------------------------------------------------------------

 Call Graph Graphs:

 _main (ROOT)
   _InitApp
   _SYSTEM_Initialize
     _INTERRUPT_Initialize
     _OSCILLATOR_Initialize
     _PIN_MANAGER_Initialize
     _TMR1_Initialize
       _TMR1_SetInterruptHandler
       _TMR1_StartTimer
   _scheduler_loop
     _TASK_DUMMY *
     _periodic_task_1024tk *
     _periodic_task_2tk *
     _periodic_task_32tk *
       _app_LED_Task
     _periodic_task_4tk *
     _periodic_task_8tk *
     _periodic_task_tk *
     _sched_util_task_finder *

 _INTERRUPT_InterruptManagerHigh (ROOT)
   _TMR1_ISR
     _TMR1_CallBack
       Absolute function(Fake) *
       _TMR1_DefaultInterruptHandler *

 Address spaces:
Name               Size   Autos  Total    Cost      Usage
BIGRAM             E7D      0       0      35        0.0%
EEDATA             400      0       0       0        0.0%
BITBANK13          100      0       0      31        0.0%
BANK13             100      0       0      32        0.0%
BITBANK12          100      0       0      29        0.0%
BANK12             100      0       0      30        0.0%
BITBANK11          100      0       0      27        0.0%
BANK11             100      0       0      28        0.0%
BITBANK10          100      0       0      25        0.0%
BANK10             100      0       0      26        0.0%
BITBANK9           100      0       0      23        0.0%
BANK9              100      0       0      24        0.0%
BITBANK8           100      0       0      21        0.0%
BANK8              100      0       0      22        0.0%
BITBANK7           100      0       0      19        0.0%
BANK7              100      0       0      20        0.0%
BITBANK6           100      0       0      17        0.0%
BANK6              100      0       0      18        0.0%
BITBANK5           100      0       0      15        0.0%
BANK5              100      0       0      16        0.0%
BITBANK4           100      0       0      13        0.0%
BANK4              100      0       0      14        0.0%
BITBANK3           100      0       0      11        0.0%
BANK3              100      0       0      12        0.0%
BITBANK2           100      0       0       9        0.0%
BANK2              100      0       0      10        0.0%
BITBANK1           100      0       0       7        0.0%
BANK1              100      0       0       8        0.0%
BITBANK0            A0      0       0       4        0.0%
BANK0               A0      0       0       5        0.0%
BITBANK14           7E      0       0      33        0.0%
BANK14              7E      0       0      34        0.0%
BITCOMRAM           5E      0       0       0        0.0%
COMRAM              5E     18      20       1       34.0%
BITSFR_2             0      0       0      40        0.0%
SFR_2                0      0       0      40        0.0%
BITSFR_1             0      0       0      40        0.0%
SFR_1                0      0       0      40        0.0%
BITSFR               0      0       0      40        0.0%
SFR                  0      0       0      40        0.0%
STACK                0      0       0       2        0.0%
NULL                 0      0       0       0        0.0%
ABS                  0      0      20       6        0.0%
DATA                 0      0      20       3        0.0%
CODE                 0      0       0       0        0.0%


Microchip Technology PIC18 Macro Assembler V1.38 build -256452561 
Symbol Table                                                                                   Thu Oct 26 18:59:54 2017

                             __CFG_CP$OFF 000000                                        u10 101C  
                                      u20 1034                                        u30 104E  
                                      u16 101E                                        u26 1036  
                                      u36 1050                                       l275 0F9E  
                                     u274 10D0                              __CFG_CPD$OFF 000000  
                                     u275 10CA                                       u348 1002  
                         _timer1ReloadVal 001B                            _scheduler_loop 0F9E  
                                     tosl 000FFD                              __CFG_LVP$OFF 000000  
                            __CFG_ZCD$OFF 000000                                      l1252 10BA  
                                    l1262 10EA                                      l1256 10DC  
                                    l1258 10DE                                      l1274 0F9E  
                                    l1286 0FC4                                      l1294 1142  
                                    _LATA 000F83                                      _LATB 000F84  
                                    _LATC 000F85                                      _LATD 000F86  
                                    _LATE 000F87                    ??_periodic_task_1024tk 000F  
                           __CFG_DEBUG$ON 000000                      __end_of_app_LED_Task 1064  
                                    _WPUA 000F10                                      _WPUB 000F18  
                                    _WPUC 000F20                                      _WPUD 000F25  
                                    _WPUE 000F2D                                      _main 113E  
                                    fsr0h 000FEA                                      fsr1h 000FE2  
                                    fsr0l 000FE9                                      fsr2h 000FDA  
                                    fsr1l 000FE1                                      fsr2l 000FD9  
                                    btemp 0021                                      pclat 000FFA  
                                    prodh 000FF4                                      prodl 000FF3  
                                    start 0092                ??_TMR1_SetInterruptHandler 0011  
                           __CFG_CSWEN$ON 000000                              ___param_bank 000010  
                         __end_of_InitApp 11A8                             __CFG_SCANE$ON 000000  
                             ?_TASK_DUMMY 0001            __size_of_OSCILLATOR_Initialize 0020  
           __end_of_OSCILLATOR_Initialize 110E                                     ?_main 0001  
                  __end_of_scheduler_loop 1014                             __CFG_WDTE$OFF 000000  
                         _TMR1_StartTimer 1196                                     _T1CLK 000FD2  
                                   _T1CON 000FCF                                     i2l173 0050  
                                   _OSCEN 000EDC                                     _TMR1H 000FCE  
                                   _TMR1L 000FCD                                     _TRISA 000F88  
                                   _TRISB 000F89                                     _TRISC 000F8A  
                                   _TRISD 000F8B                                     _TRISE 000F8C  
                           __CFG_WRT0$OFF 000000                             __CFG_WRT1$OFF 000000  
                           __CFG_WRT2$OFF 000000                             __CFG_WRT3$OFF 000000  
                          __CFG_EBTR0$OFF 000000                            __CFG_FCMEN$OFF 000000  
                          __CFG_EBTR1$OFF 000000                            __CFG_EBTR2$OFF 000000  
                          __CFG_EBTR3$OFF 000000               __size_of_periodic_task_32tk 0006  
                        __end_of_TMR1_ISR 1174                             __CFG_WRTB$OFF 000000  
                           __CFG_WRTC$OFF 000000                             __CFG_WRTD$OFF 000000  
                          __CFG_EBTRB$OFF 000000                        __CFG_MCLRE$EXTMCLR 000000  
                 __end_of_TMR1_Initialize 10AC        sched_util_task_finder@lub_ExitFlag 0014  
                                   pclath 000FFA                                     tablat 000FF5  
                                   status 000FD8                           __initialization 112C  
                            __end_of_main 1150                                    ??_main 0019  
                         ?_scheduler_loop 0001                             __activetblptr 000003  
                                  _ANSELA 000F11                                    _ANSELB 000F19  
                                  _ANSELC 000F21                                    _ANSELD 000F26  
                                  _ANSELE 000F2E                       __size_of_TASK_DUMMY 0002  
                                  _T1GATE 000FD1                                    _T1GCON 000FD0  
                                  _ODCONA 000F0F                                    _ODCONB 000F17  
                                  _ODCONC 000F1F                                    _ODCOND 000F24  
                                  _ODCONE 000F2C                            __CFG_WDTCCS$SC 000000  
                                  _TABLAT 000FF5                                    _OSCFRQ 000EDE  
                                  _NVMDAT 000F80                                    _TMR1IF 007670  
                                  i2u5_48 111A                         ?_periodic_task_tk 0001  
                               ??_InitApp 000F                        ??_periodic_task_tk 000F  
                          __CFG_PWRTE$OFF 000000                            __CFG_XINST$OFF 000000  
    __end_of_TMR1_DefaultInterruptHandler 1188     __size_of_TMR1_DefaultInterruptHandler 000A  
            _TMR1_DefaultInterruptHandler 117E                   __end_of_TMR1_StartTimer 119A  
                          __CFG_STVREN$ON 000000                         _scheduler_counter 001D  
                            __mediumconst 0000                     __size_of_app_LED_Task 0050  
                                  tblptrh 000FF7                                    tblptrl 000FF6  
                                  tblptru 000FF8  TMR1_SetInterruptHandler@InterruptHandler 000F  
           __size_of_INTERRUPT_Initialize 0008                     __end_of_TMR1_CallBack 112C  
                        ?_TMR1_Initialize 0001          ??_INTERRUPT_InterruptManagerHigh 0001  
         ?_INTERRUPT_InterruptManagerHigh 0001                         _SYSTEM_Initialize 1150  
                              __accesstop 0060                   __end_of__initialization 1134  
                      ?_SYSTEM_Initialize 0001                             ___rparam_used 000001  
                          __pcstackCOMRAM 0001                       ??_SYSTEM_Initialize 0013  
                               ?_TMR1_ISR 0001             ?_TMR1_DefaultInterruptHandler 0001  
                            _app_LED_Task 1014         sched_util_task_finder@sch_counter 000F  
               __end_of_SYSTEM_Initialize 1162                                __pnvCOMRAM 0019  
                            ??_TASK_DUMMY 000F                          ?_TMR1_StartTimer 0001  
                              ??_TMR1_ISR 0001                           __CFG_PPS1WAY$ON 000000  
                ??_sched_util_task_finder 0011                         _periodic_task_2tk 11A2  
                       _periodic_task_4tk 11A0                         _periodic_task_8tk 119E  
                                 _OSCCON1 000ED8                                   _OSCCON3 000EDA  
                                 _TBLPTRH 000FF7                                   _TBLPTRL 000FF6  
                                 _TBLPTRU 000FF8                                   _NVMADRH 000F7F  
                                 _NVMADRL 000F7E                        ?_periodic_task_2tk 0001  
                                 _OSCTUNE 000EDD                        ?_periodic_task_4tk 0001  
                                 _NVMCON2 000F82                        ?_periodic_task_8tk 0001  
                      __end_of_TASK_DUMMY 119E                       ??_periodic_task_2tk 000F  
                     ??_periodic_task_4tk 000F                       ??_periodic_task_8tk 000F  
           __size_of_periodic_task_1024tk 0002                                   _InitApp 11A6  
                                 __Hparam 0000                                   __Lparam 0000  
              __CFG_RSTOSC$HFINTOSC_64MHZ 000000                          ??_scheduler_loop 0016  
                            __psmallconst 0F00                                   __pcinit 112C  
                                 __ramtop 0F00                 __end_of_periodic_task_2tk 11A4  
               __end_of_periodic_task_4tk 11A2                                   __ptext0 113E  
                                 __ptext1 0F9E                                   __ptext2 10AC  
                                 __ptext3 119A                                   __ptext4 1190  
                                 __ptext5 119C                                   __ptext6 119E  
                                 __ptext7 11A0                                   __ptext8 11A2  
                                 __ptext9 11A4                 __end_of_periodic_task_8tk 11A0  
          ??_TMR1_DefaultInterruptHandler 0001                                 _T1CONbits 000FCF  
              __end_of_periodic_task_32tk 1196                     _OSCILLATOR_Initialize 10EE  
       __size_of_TMR1_SetInterruptHandler 000A                  ??_PIN_MANAGER_Initialize 000F  
               ?_TMR1_SetInterruptHandler 000F                __size_of_SYSTEM_Initialize 0012  
                    end_of_initialization 1134                                _tasks_list 0F01  
         __size_of_sched_util_task_finder 0042                     __CFG_WDTCPS$WDTCPS_31 000000  
               __size_of_periodic_task_tk 0002                          __CFG_FEXTOSC$OFF 000000  
            __end_of_INTERRUPT_Initialize 1190                         __size_of_TMR1_ISR 0012  
                            _Execute_task 001F                __size_of_periodic_task_2tk 0002  
              __size_of_periodic_task_4tk 0002                __size_of_periodic_task_8tk 0002  
                  ?_OSCILLATOR_Initialize 0001                       start_initialization 112C  
         __size_of_PIN_MANAGER_Initialize 007C                    _sched_util_task_finder 10AC  
                        __CFG_LPBOREN$OFF 000000                  __size_of_TMR1_Initialize 0048  
                  __size_of_TMR1_CallBack 001E                               __pbssCOMRAM 001D  
                                ?_InitApp 0001                    _PIN_MANAGER_Initialize 0F22  
                               __pintcode 0008          __end_of_TMR1_SetInterruptHandler 117E  
                        _periodic_task_tk 11A4              __end_of_periodic_task_1024tk 119C  
                             __smallconst 0F00                  __size_of_TMR1_StartTimer 0004  
                    _INTERRUPT_Initialize 1188                                 _sch_alarm 0020  
                           _TMR1_CallBack 110E                        _periodic_task_32tk 1190  
                                _LATBbits 000F84                                  _IPR4bits 000EBE  
                                _PIE4bits 000EC6                       __CFG_BORV$VBOR_2P45 000000  
                     ?_periodic_task_32tk 0001                                  _PIR4bits 000ECE  
                                _PIR7bits 000ED1                                  _TMR1_ISR 1162  
                       ??_TMR1_Initialize 0011                      ??_periodic_task_32tk 0010  
                   ?_INTERRUPT_Initialize 0001                            ?_TMR1_CallBack 0001  
                        __size_of_InitApp 0002                                  __Hrparam 0000  
                                __Lrparam 0000                        __CFG_BOREN$SBORDIS 000000  
                 ??_OSCILLATOR_Initialize 000F                             ?_app_LED_Task 0001  
                _TMR1_SetInterruptHandler 1174                     _TMR1_InterruptHandler 0019  
                 ?_sched_util_task_finder 000F                   __size_of_scheduler_loop 0076  
     sched_util_task_finder@lub_TaskIndex 0015                                  __ptext10 1014  
                                __ptext11 1150                                  __ptext20 1162  
                                __ptext12 1064                                  __ptext21 110E  
                                __ptext13 1196                                _T1GCONbits 000FD0  
                                __ptext22 117E                                  __ptext14 1174  
                                __ptext23 0000                                  __ptext15 0F22  
                                __ptext16 10EE                                  __ptext17 1188  
                                __ptext18 11A6                         ??_TMR1_StartTimer 000F  
                           __size_of_main 0012                      _periodic_task_1024tk 119A  
                    __CFG_WDTCWS$WDTCWS_7 000000                                  int$flags 0021  
                          ??_app_LED_Task 000F            __end_of_sched_util_task_finder 10EE  
                              _INTCONbits 000FF2                               _NVMCON1bits 000F81  
                  ??_INTERRUPT_Initialize 000F                           ??_TMR1_CallBack 0001  
                                intlevel2 0000                        __end_of_tasks_list 0F21  
                __end_of_periodic_task_tk 11A6                     ?_periodic_task_1024tk 0001  
                 ?_PIN_MANAGER_Initialize 0001                         __CFG_CLKOUTEN$OFF 000000  
                              _TASK_DUMMY 119C    __end_of_INTERRUPT_InterruptManagerHigh 008C  
 __size_of_INTERRUPT_InterruptManagerHigh 0084            _INTERRUPT_InterruptManagerHigh 0008  
          __end_of_PIN_MANAGER_Initialize 0F9E                           _TMR1_Initialize 1064  
